ccollections
OrderedDict
p1
((lp2
(lp3
I3930275
a(dp4
V_id
p5
I3930275
sVrawcites
p6
(lp7
I914377
aI2971278
aI3311937
asaa(lp8
I3930305
a(dp9
V_id
p10
I3930305
sVrawcites
p11
(lp12
I3341753
aI3495324
aI3602981
aI3641661
aI3667005
aI3700508
asaa(lp13
I5698035
a(dp14
V_id
p15
I5698035
sVrawcites
p16
(lp17
saa(lp18
I5698036
a(dp19
V_id
p20
I5698036
sVrawcites
p21
(lp22
I5364519
aI5538699
aI5545258
aI5562775
asaa(lp23
I5698037
a(dp24
V_id
p25
I5698037
sVrawcites
p26
(lp27
I4436674
aI4488506
aI4545801
aI4572943
aI4583372
aI4619844
aI4640221
asaa(lp28
I5698038
a(dp29
V_id
p30
I5698038
sVrawcites
p31
(lp32
I4209342
aI4940494
aI4980300
aI5071488
aI5090432
aI5113882
aI5427622
asaa(lp33
I5698046
a(dp34
V_id
p35
I5698046
sVrawcites
p36
(lp37
I1985424
aI2016962
aI2653932
aI2703798
aI2965576
aI3654166
aI3764531
aI5174927
aI5188769
aI5194639
aI5283009
aI5318728
asaa(lp38
I5698048
a(dp39
V_id
p40
I5698048
sVrawcites
p41
(lp42
I5171373
asaa(lp43
I5698050
a(dp44
V_id
p45
I5698050
sVrawcites
p46
(lp47
I3901743
aI4975125
asaa(lp48
I5698051
a(dp49
V_id
p50
I5698051
sVrawcites
p51
(lp52
I3973612
aI5526863
asaa(lp53
I5698057
a(dp54
V_id
p55
I5698057
sVrawcites
p56
(lp57
I4884380
aI4898760
aI5538777
asaa(lp58
I5698059
a(dp59
V_id
p60
I5698059
sVrawcites
p61
(lp62
I2726184
aI2739916
aI3164506
aI3879241
aI4849048
aI4880486
aI4916805
aI5028330
aI5028841
aI5064494
aI5154791
asaa(lp63
I5698061
a(dp64
V_id
p65
I5698061
sVrawcites
p66
(lp67
I4352925
aI4450250
aI5286545
asaa(lp68
I5698068
a(dp69
V_id
p70
I5698068
sVrawcites
p71
(lp72
I3816216
aI4472235
aI4768946
aI4776921
aI4954206
aI5225025
aI5368217
aI5439161
asaa(lp73
I5698069
a(dp74
V_id
p75
I5698069
sVrawcites
p76
(lp77
I4167337
asaa(lp78
I5698041
a(dp79
V_id
p80
I5698041
sVrawcites
p81
(lp82
I3896033
aI3935130
aI3962149
aI3993575
aI4247408
aI4501680
aI4581161
aI4612135
aI4759865
aI5008030
aI5061393
aI5075026
aI5384063
asaa(lp83
I5698049
a(dp84
V_id
p85
I5698049
sVrawcites
p86
(lp87
I5015440
aI5427735
asaa(lp88
I5698052
a(dp89
V_id
p90
I5698052
sVrawcites
p91
(lp92
I4274884
aI4705825
aI4814039
aI4816186
aI5271766
asaa(lp93
I5698053
a(dp94
V_id
p95
I5698053
sVrawcites
p96
(lp97
I3281296
aI3311517
aI3769133
aI3900673
aI3917503
aI4671838
aI4793878
aI4902879
aI4988398
aI5082515
aI5250146
aI5264058
aI5294272
aI5364487
asaa(lp98
I5698054
a(dp99
V_id
p100
I5698054
sVrawcites
p101
(lp102
I3033723
aI3142599
aI3231454
aI3628720
aI3868285
aI3940529
aI4412879
aI4518643
aI4555811
aI4629643
aI4657625
aI4891258
aI4894265
aI4895749
aI4995930
aI5158819
asaa(lp103
I5698055
a(dp104
V_id
p105
I5698055
sVrawcites
p106
(lp107
I2748830
aI3033729
aI3491999
aI3507023
aI4132579
aI4404053
aI4774043
aI5028464
aI5076871
aI5083780
aI5231783
aI5340625
aI5474630
asaa(lp108
I5698056
a(dp109
V_id
p110
I5698056
sVrawcites
p111
(lp112
I2350132
aI2359190
aI2775082
aI3540356
aI3630798
aI3829340
aI4009063
aI4054473
aI4080235
aI4132578
aI4146661
aI4156054
aI4243453
aI4446181
aI4648926
aI4681783
aI4685983
aI4690668
aI4709948
aI4722759
aI4723579
aI4737212
aI4880035
aI4938820
aI4976290
aI5009632
aI5034180
aI5044405
aI5049426
aI5058934
aI5084119
aI5093171
aI5139134
aI5163481
aI5167901
aI5169697
aI5186987
aI5223204
aI5301719
aI5320698
aI5334429
aI5349996
aI5356502
aI5358359
aI5374174
aI5388616
aI5395472
aI5407630
aI5447665
aI5472755
aI5477887
aI5486332
aI5487411
aI5490964
aI5503695
asaa(lp113
I5698058
a(dp114
V_id
p115
I5698058
sVrawcites
p116
(lp117
I5073426
aI5313758
aI5328739
asaa(lp118
I5698060
a(dp119
V_id
p120
I5698060
sVrawcites
p121
(lp122
I3654035
aI3717057
aI3939031
aI4097323
aI4234365
aI4363695
aI4492609
aI5193759
aI5283945
aI5356496
aI5443681
asaa(lp123
I5698062
a(dp124
V_id
p125
I5698062
sVrawcites
p126
(lp127
I4263088
aI4464223
aI4579618
aI4617079
aI4626312
aI4808258
aI4863549
aI4954212
aI5057185
aI5116482
aI5147493
aI5228939
aI5272417
aI5314603
aI5342471
asaa(lp128
I5698063
a(dp129
V_id
p130
I5698063
sVrawcites
p131
(lp132
I3770533
aI3977925
aI3986200
aI4007464
aI4397711
aI4470875
aI4733823
aI5021364
aI5254209
aI5308442
aI5338400
aI5484507
asaa(lp133
I5698064
a(dp134
V_id
p135
I5698064
sVrawcites
p136
(lp137
I3127297
aI3730801
aI3883382
aI3886028
aI4111732
aI4600467
aI4966640
asaa(lp138
I5698065
a(dp139
V_id
p140
I5698065
sVrawcites
p141
(lp142
I1055915
aI1084116
aI2343106
aI2594693
aI3036728
aI3112234
aI3282757
aI3388932
aI3412891
aI3492186
aI3661294
aI3885071
aI4004706
aI4289564
aI4395029
aI4594122
aI4631101
aI4750960
aI4765458
aI5062914
aI5167742
aI5204033
aI5211306
asaa(lp143
I5698066
a(dp144
V_id
p145
I5698066
sVrawcites
p146
(lp147
I2596162
aI2683105
aI3025205
aI3148102
aI3313670
aI3574040
aI3616070
aI3616078
aI3694927
aI3723157
aI3737352
aI3775219
aI3819461
aI3970831
aI4145740
aI4168194
aI4221619
aI4292108
aI4351688
aI4382836
aI4461669
aI4508584
aI4531998
aI4557790
aI4569716
aI4591402
aI4610402
aI4699683
aI4790898
aI4797172
aI4799981
aI4822444
aI4867834
aI4872619
aI4877193
aI4877471
aI4907754
aI4943338
aI4997503
aI5015326
aI5022952
aI5045147
aI5078592
aI5104474
aI5110395
asaa(lp148
I5698067
a(dp149
V_id
p150
I5698067
sVrawcites
p151
(lp152
I1869729
aI2275212
aI2295477
aI2295679
aI2790609
aI4060444
aI5154335
asaa(lp153
I5698070
a(dp154
V_id
p155
I5698070
sVrawcites
p156
(lp157
I4565601
aI4661228
aI4680061
aI4909314
aI4931135
aI5024747
aI5147493
aI5147497
aI5221403
aI5238499
aI5356515
aI5415728
asaa(lp158
I5698071
a(dp159
V_id
p160
I5698071
sVrawcites
p161
(lp162
I5200031
aI5221424
aI5227341
aI5380397
aI5545289
asaa(lp163
I5698072
a(dp164
V_id
p165
I5698072
sVrawcites
p166
(lp167
I5118387
aI5160407
aI5160408
aI5354417
aI5416037
aI5431770
aI5491100
asaa(lp168
I5698073
a(dp169
V_id
p170
I5698073
sVrawcites
p171
(lp172
I2260080
aI2330006
aI2344276
aI2534525
aI2651817
aI2670065
aI2957521
aI3134273
aI3319303
aI3349516
aI3526994
aI3704548
aI4032009
aI4143803
aI4167833
aI4191237
aI4247806
aI4254582
aI4352585
aI4366482
aI4426637
aI4442631
aI4472910
aI4597224
aI4597428
aI4653565
aI4684853
aI4731605
aI4739584
aI4771218
aI4791757
aI4792659
aI4794732
aI4819379
aI4867498
aI4900294
aI4922168
aI4996795
aI5020845
aI5027553
aI5111906
aI5137500
aI5184132
aI5209089
aI5222327
aI5226257
aI5239776
aI5247232
aI5299678
aI5304979
aI5357183
aI5444440
aI5465033
aI5475366
aI5533561
aI5557887
asaa(lp173
I5697906
a(dp174
V_id
p175
I5697906
sVrawcites
p176
(lp177
I4327709
aI4362150
aI4569332
aI4646719
aI4955384
aI4994018
aI5090957
aI5116305
aI5243996
aI5308319
aI5341818
aI5346505
aI5397306
aI5411476
aI5439443
aI5441489
aI5449343
aI5456665
aI5460607
aI5480383
aI5505699
aI5507766
asaa(lp178
I5697911
a(dp179
V_id
p180
I5697911
sVrawcites
p181
(lp182
I396754
aI611454
aI1920006
aI3467088
aI3516403
aI3589368
aI3877464
aI4359053
aI4445896
aI4714461
aI4973305
aI5084014
aI5104383
aI5209737
aI5261895
aI5300035
aI5312362
aI5330488
aI5591132
asaa(lp183
I5697913
a(dp184
V_id
p185
I5697913
sVrawcites
p186
(lp187
I3817251
aI4430081
aI4655752
aI4832696
aI5002557
aI5147316
aI5217441
aI5257975
aI5267966
aI5271380
aI5330497
aI5352211
aI5403336
aI5407433
aI5411483
asaa(lp188
I5697915
a(dp189
V_id
p190
I5697915
sVrawcites
p191
(lp192
I2737948
aI3291151
aI3494359
aI3511239
aI3563240
aI3659587
aI3680558
aI3730170
aI3807119
aI3835835
aI3835855
aI3976069
aI3985122
aI3986508
aI4051852
aI4078565
aI4197848
aI4214779
aI4437858
aI4439184
aI4453934
aI4464174
aI4496344
aI4496350
aI4511359
aI4609371
aI4610666
aI4655747
aI4673386
aI4693706
aI4702737
aI4715854
aI4758225
aI4763648
aI4768568
aI4792329
aI4799494
aI4834152
aI4834714
aI4838855
aI4865583
aI4920970
aI4929235
aI4932944
aI4941876
aI4950257
aI4979941
aI4979942
aI4981469
aI4986278
aI4989606
aI4994043
aI4998927
aI5007903
aI5048537
aI5078691
aI5102388
aI5108380
aI5114400
aI5125892
aI5147305
aI5147323
aI5149327
aI5178607
aI5201725
aI5211370
aI5215537
aI5215538
aI5242432
aI5251873
aI5273533
aI5360413
aI5396925
aI5441487
aI5466219
aI5522804
aI5549651
asaa(lp193
I5697923
a(dp194
V_id
p195
I5697923
sVrawcites
p196
(lp197
I4570626
aI4665913
aI4729372
aI4770172
aI5004333
aI5207668
aI5312320
aI5368590
aI5503165
aI5505723
aI5507740
asaa(lp198
I5697783
a(dp199
V_id
p200
I5697783
sVrawcites
p201
(lp202
I632905
aI1304881
aI2007517
aI3055110
aI3138872
aI3343247
aI3452436
aI3513545
aI4167813
aI4192068
aI4553937
aI4840562
aI5382160
asaa(lp203
I3930314
a(dp204
V_id
p205
I3930314
sVrawcites
p206
(lp207
I1436673
aI2089757
aI2713723
aI2909843
asaa(lp208
I5697905
a(dp209
V_id
p210
I5697905
sVrawcites
p211
(lp212
I3833003
aI4589868
aI5167622
aI5188592
asaa(lp213
I5697907
a(dp214
V_id
p215
I5697907
sVrawcites
p216
(lp217
I4728321
aI4747831
aI4798587
aI4986811
aI4995871
aI5187850
aI5195983
aI5279581
aI5322517
aI5328482
aI5334158
aI5411486
aI5417659
aI5447501
aI5466223
aI5549558
aI5562629
asaa(lp218
I5697908
a(dp219
V_id
p220
I5697908
sVrawcites
p221
(lp222
I4631057
aI4737144
aI4985021
aI5066277
aI5217437
aI5304149
aI5308332
aI5338303
aI5338310
aI5342309
aI5352208
aI5385555
aI5385557
aI5458577
aI5562624
asaa(lp223
I5697910
a(dp224
V_id
p225
I5697910
sVrawcites
p226
(lp227
I5324422
asaa(lp228
I5697914
a(dp229
V_id
p230
I5697914
sVrawcites
p231
(lp232
I3046984
aI3547119
aI3589361
aI3853127
aI4099528
aI4149539
aI4317445
aI4324236
aI4326519
aI4353369
aI4362156
aI4419094
aI4496348
aI4531935
aI4813939
aI4834708
aI4894052
aI4966586
aI5059186
aI5084023
aI5176662
aI5242411
aI5254097
aI5267971
aI5269764
aI5273546
aI5304144
aI5306243
aI5312359
aI5514109
aI5549576
asaa(lp233
I5697916
a(dp234
V_id
p235
I5697916
sVrawcites
p236
(lp237
I2586581
aI2861570
aI3807464
aI3833030
aI3875979
aI3907009
aI4018223
aI4098276
aI4219055
aI4252159
aI4274453
aI4357971
aI4434820
aI4475915
aI4489766
aI4778454
aI4883101
aI5468233
asaa(lp238
I5697922
a(dp239
V_id
p240
I5697922
sVrawcites
p241
(lp242
I4111201
aI4111203
aI4608048
aI4755180
aI5120548
aI5225202
aI5260068
asaa(lp243
I5697925
a(dp244
V_id
p245
I5697925
sVrawcites
p246
(lp247
I4641649
aI4785815
aI4869248
aI4896671
aI5357956
asaa(lp248
I5697926
a(dp249
V_id
p250
I5697926
sVrawcites
p251
(lp252
I4785807
aI4980021
aI5141460
asaa(lp253
I5697927
a(dp254
V_id
p255
I5697927
sVrawcites
p256
(lp257
I4907589
aI5230349
aI5234004
aI5334193
aI5348554
asaa(lp258
I5697928
a(dp259
V_id
p260
I5697928
sVrawcites
p261
(lp262
I4860769
aI5016808
aI5133365
aI5239999
aI5374287
aI5383917
aI5397342
aI5423865
aI5431683
aI5462545
aI5487385
aI5545193
aI5549661
aI5551427
aI5575766
aI5575810
asaa(lp263
I5697930
a(dp264
V_id
p265
I5697930
sVrawcites
p266
(lp267
I2579968
aI4881535
aI5034013
aI5041115
aI5472444
asaa(lp268
I5697933
a(dp269
V_id
p270
I5697933
sVrawcites
p271
(lp272
I4257411
aI4535768
aI4668233
aI4672957
aI4739751
aI4823780
aI4901711
aI4920958
aI4985032
aI5152764
aI5234434
aI5314429
aI5366457
aI5385567
asaa(lp273
I5697917
a(dp274
V_id
p275
I5697917
sVrawcites
p276
(lp277
I396107
aI489757
aI1567517
aI1973706
aI2322244
aI2322245
aI2380534
aI2390246
aI2398544
aI2413303
aI2459875
aI2547099
aI2605763
aI2635602
aI2653602
aI2670121
aI2671347
aI2681653
aI2688968
aI2699166
aI2704542
aI2704543
aI2705953
aI2714887
aI2717597
aI2737946
aI2754818
aI2762369
aI2762370
aI2764977
aI2789839
aI2798485
aI2798486
aI2800903
aI2816543
aI2816544
aI2820655
aI2821193
aI2821981
aI2825332
aI2902994
aI2921582
aI2928390
aI3057349
aI3066570
aI3115133
aI3123070
aI3129708
aI3130723
aI3131692
aI3138157
aI3140713
aI3147967
aI3167071
aI3189029
aI3202151
aI3245703
aI3292622
aI3308818
aI3330276
aI3330277
aI3335722
aI3353537
aI3406684
aI3424154
aI3461867
aI3476110
aI3490451
aI3507276
aI3518990
aI3521633
aI3526225
aI3527212
aI3557784
aI3561443
aI3625208
aI3659587
aI3688765
aI3714943
aI3768472
aI3779371
aI3782380
aI3783895
aI3788315
aI3805783
aI3827601
aI3838689
aI3908651
aI3938520
aI3945379
aI3945383
aI4059107
aI4089334
aI4328802
aI4387879
aI4421508
aI4447225
aI4500075
aI4505709
aI4507113
aI4518385
aI4561856
aI4588403
aI4596556
aI4619651
aI4623332
aI4626242
aI4662878
aI4675020
aI4680027
aI4709686
aI4722728
aI4744786
aI4768568
aI4771758
aI4775173
aI4790824
aI4834149
aI4850967
aI4863427
aI4874367
aI4883483
aI4909488
aI4923072
aI4940460
aI4941880
aI4948104
aI4950240
aI4989905
aI5024656
aI5031266
aI5041715
aI5061263
aI5062830
aI5064413
aI5066280
aI5073165
aI5085332
aI5116313
aI5135507
aI5161786
aI5165560
aI5176406
aI5181912
aI5188599
aI5190523
aI5193517
aI5209362
aI5224932
aI5226882
aI5281202
aI5292308
aI5304128
aI5312335
aI5312577
aI5316198
aI5334144
aI5352203
aI5356380
aI5360146
aI5383851
aI5399163
aI5407431
aI5413471
aI5423756
aI5480381
aI5499972
aI5503627
aI5520639
aI5569189
asaa(lp278
I5697918
a(dp279
V_id
p280
I5697918
sVrawcites
p281
(lp282
I3010705
aI3729031
aI3757781
aI4046145
aI4351334
aI4551135
aI4639248
aI4743229
aI4863072
aI5308341
aI5324273
aI5425580
asaa(lp283
I5697919
a(dp284
V_id
p285
I5697919
sVrawcites
p286
(lp287
I3468308
aI5002528
aI5053012
aI5061243
aI5211632
aI5360411
aI5439452
asaa(lp288
I5697920
a(dp289
V_id
p290
I5697920
sVrawcites
p291
(lp292
I1821715
aI2177987
aI4511163
asaa(lp293
I5697921
a(dp294
V_id
p295
I5697921
sVrawcites
p296
(lp297
I2182254
aI3460164
aI3609771
aI3992729
aI4368548
aI5069878
aI5487393
asaa(lp298
I5697931
a(dp299
V_id
p300
I5697931
sVrawcites
p301
(lp302
I3577991
aI3877434
aI4632100
aI4669473
aI4694826
aI4738255
aI4827928
aI4898156
aI4899743
aI4901712
aI4938760
aI4946468
aI4968315
aI5002550
aI5007894
aI5013292
aI5013316
aI5019032
aI5037422
aI5041129
aI5046513
aI5078730
aI5084058
aI5087263
aI5100417
aI5112344
aI5133723
aI5135528
aI5141520
aI5147362
aI5163946
aI5174087
aI5176682
aI5192303
aI5207679
aI5217486
aI5222977
aI5224946
aI5236445
aI5250055
aI5258016
aI5268001
aI5269809
aI5281237
aI5306290
aI5314433
aI5318577
aI5354298
aI5356413
aI5358511
aI5364410
aI5372599
aI5376096
aI5397325
aI5411506
aI5411523
aI5417712
aI5423860
aI5437675
aI5439467
aI5441502
aI5486197
aI5496345
aI5505735
aI5505736
aI5507796
aI5520696
aI5520700
aI5522845
aI5540711
aI5544664
asaa(lp303
I5697932
a(dp304
V_id
p305
I5697932
sVrawcites
p306
(lp307
I3255570
aI3554192
aI3740769
aI3782373
aI3793650
aI3829904
aI3846846
aI3874003
aI3896505
aI3906550
aI3918100
aI3965490
aI3986212
aI4004581
aI4080666
aI4141088
aI4277238
aI4279042
aI4284080
aI4302855
aI4306550
aI4337773
aI4341206
aI4399814
aI4466429
aI4491987
aI4494581
aI4497075
aI4520511
aI4523587
aI4535485
aI4546767
aI4552136
aI4561432
aI4589883
aI4612160
aI4642124
aI4644942
aI4653487
aI4657002
aI4657549
aI4678471
aI4686972
aI4705032
aI4705519
aI4706659
aI4713076
aI4718909
aI4728335
aI4751922
aI4753657
aI4777942
aI4800875
aI4809689
aI4815454
aI4846161
aI4860735
aI4865608
aI4873969
aI4881536
aI4888023
aI4896662
aI4908035
aI4919153
aI4919673
aI4919679
aI4986826
aI4994065
aI4994085
aI5015256
aI5021063
aI5047033
aI5047035
aI5049151
aI5061287
aI5078746
aI5080680
aI5122134
aI5171288
aI5181918
aI5190548
aI5269785
aI5329846
aI5385566
aI5403317
aI5545222
aI5577517
asaa(lp308
I5697934
a(dp309
V_id
p310
I5697934
sVrawcites
p311
(lp312
I464465
aI2267925
aI2579968
aI3351054
aI4146022
aI4169470
aI4483335
aI4506662
aI4667663
aI4852559
aI5330476
aI5486174
aI5499983
asaa(lp313
I5697782
a(dp314
V_id
p315
I5697782
sVrawcites
p316
(lp317
I3508332
aI3618214
aI3654702
aI3798773
aI4074433
aI4416626
aI4551095
aI4708646
aI4815968
aI5312247
aI5352116
aI5435721
aI5443384
asaa(lp318
I5697785
a(dp319
V_id
p320
I5697785
sVrawcites
p321
(lp322
I4267097
aI4350532
aI4364731
aI4820744
aI5043361
aI5228907
aI5539017
asaa(lp323
I5697787
a(dp324
V_id
p325
I5697787
sVrawcites
p326
(lp327
I532721
aI983579
aI3657780
aI3693972
aI4234310
aI4744759
aI4993951
aI5203203
aI5219283
aI5377552
asaa(lp328
I5697789
a(dp329
V_id
p330
I5697789
sVrawcites
p331
(lp332
I4170834
aI4193119
aI4467446
aI4685060
aI4730270
aI4791587
aI4913539
aI4954969
aI4980829
aI5010495
aI5091876
aI5109482
aI5111409
aI5136655
aI5145376
aI5275569
aI5286205
aI5308244
aI5385475
aI5388993
asaa(lp333
I5697794
a(dp334
V_id
p335
I5697794
sVrawcites
p336
(lp337
I3082398
aI3102767
aI3154365
aI3319216
aI3486159
aI3614707
aI3922054
aI4348071
aI4552420
aI4784615
aI4802866
aI4907975
aI4911643
aI5026291
aI5044980
aI5080595
aI5163835
aI5195897
aI5297968
aI5316486
asaa(lp338
I5697795
a(dp339
V_id
p340
I5697795
sVrawcites
p341
(lp342
I5161984
aI5249972
aI5320550
aI5364284
aI5395254
aI6354206
asaa(lp343
I5697805
a(dp344
V_id
p345
I5697805
sVrawcites
p346
(lp347
I4572602
aI4722698
aI4738637
aI4842543
aI5002497
aI5037323
aI5071374
aI5080604
aI5125849
aI5129831
aI5147225
aI5147226
aI5161996
aI5211585
aI5356300
aI5391091
aI5486118
asaa(lp348
I5697819
a(dp349
V_id
p350
I5697819
sVrawcites
p351
(lp352
I4413872
aI4648679
aI4995830
aI5067913
aI5154630
asaa(lp353
I5697822
a(dp354
V_id
p355
I5697822
sVrawcites
p356
(lp357
I1533023
aI4034430
aI4952184
aI5080621
asaa(lp358
I3930358
a(dp359
V_id
p360
I3930358
sVrawcites
p361
(lp362
I2977433
aI3100961
aI3708973
asaa(lp363
I3930361
a(dp364
V_id
p365
I3930361
sVrawcites
p366
(lp367
saa(lp368
I3930393
a(dp369
V_id
p370
I3930393
sVrawcites
p371
(lp372
I3434511
aI3636612
aI3667102
asaa(lp373
I3930410
a(dp374
V_id
p375
I3930410
sVrawcites
p376
(lp377
I3455155
asaa(lp378
I3930433
a(dp379
V_id
p380
I3930433
sVrawcites
p381
(lp382
I830511
aI1985493
aI2459141
aI2503575
asaa(lp383
I3930435
a(dp384
V_id
p385
I3930435
sVrawcites
p386
(lp387
I526342
aI2831464
aI3456744
aI3732784
asaa(lp388
I3930439
a(dp389
V_id
p390
I3930439
sVrawcites
p391
(lp392
I2627822
aI3164937
asaa(lp393
I3930443
a(dp394
V_id
p395
I3930443
sVrawcites
p396
(lp397
I2904934
aI2947120
asaa(lp398
I3930530
a(dp399
V_id
p400
I3930530
sVrawcites
p401
(lp402
I2882943
aI3074468
asaa(lp403
I3930546
a(dp404
V_id
p405
I3930546
sVrawcites
p406
(lp407
I2228874
aI3602325
asaa(lp408
I3930595
a(dp409
V_id
p410
I3930595
sVrawcites
p411
(lp412
I3448894
asaa(lp413
I5697784
a(dp414
V_id
p415
I5697784
sVrawcites
p416
(lp417
I4363626
aI4655198
aI5344317
asaa(lp418
I5697788
a(dp419
V_id
p420
I5697788
sVrawcites
p421
(lp422
I4315315
aI4455619
aI4546435
aI4622013
aI4656603
aI5210859
aI5259766
aI5301198
aI5310349
aI5632022
asaa(lp423
I5697793
a(dp424
V_id
p425
I5697793
sVrawcites
p426
(lp427
I3748753
aI3818130
aI4159417
aI4160242
aI4350070
aI4397635
aI4579533
aI4639225
aI4774596
aI4779080
aI4820167
aI4854878
aI4855725
aI4884974
aI4899292
aI4912671
aI4985697
aI4994912
aI4997374
aI5007838
aI5021989
aI5146552
aI5157783
aI5165016
aI5167508
aI5173051
aI5199104
aI5208745
aI5214696
aI5228859
aI5233333
aI5239665
aI5241671
aI5243582
aI5256067
aI5275569
aI5301172
aI5302132
aI5339091
aI5350303
aI5351190
aI5355352
asaa(lp428
I5697797
a(dp429
V_id
p430
I5697797
sVrawcites
p431
(lp432
saa(lp433
I5697798
a(dp434
V_id
p435
I5697798
sVrawcites
p436
(lp437
I4395082
aI5234350
asaa(lp438
I5697799
a(dp439
V_id
p440
I5697799
sVrawcites
p441
(lp442
I4824377
aI5037330
aI5066240
aI5085590
aI5096440
aI5167531
aI5177671
aI5342220
aI5470259
aI5558540
aI5567168
aI5567169
asaa(lp443
I5697801
a(dp444
V_id
p445
I5697801
sVrawcites
p446
(lp447
I5429519
asaa(lp448
I5697802
a(dp449
V_id
p450
I5697802
sVrawcites
p451
(lp452
I5030115
aI5176523
aI5334046
aI5413497
asaa(lp453
I5697808
a(dp454
V_id
p455
I5697808
sVrawcites
p456
(lp457
I4431245
aI5136229
asaa(lp458
I5697809
a(dp459
V_id
p460
I5697809
sVrawcites
p461
(lp462
I5364289
asaa(lp463
I5697810
a(dp464
V_id
p465
I5697810
sVrawcites
p466
(lp467
I2962688
aI3466453
aI4272142
aI4885524
aI4900270
asaa(lp468
I5697811
a(dp469
V_id
p470
I5697811
sVrawcites
p471
(lp472
I4278315
aI5458248
aI5494461
aI5531414
asaa(lp473
I5697812
a(dp474
V_id
p475
I5697812
sVrawcites
p476
(lp477
I4477142
aI4668040
aI4953061
aI5071371
aI5112235
asaa(lp478
I5697814
a(dp479
V_id
p480
I5697814
sVrawcites
p481
(lp482
I4797116
aI5066252
aI5071373
aI5203722
aI5397249
asaa(lp483
I5697815
a(dp484
V_id
p485
I5697815
sVrawcites
p486
(lp487
I4241974
aI4438998
aI4444451
aI4714440
asaa(lp488
I5697816
a(dp489
V_id
p490
I5697816
sVrawcites
p491
(lp492
I3101231
aI4824383
aI5098319
asaa(lp493
I5697817
a(dp494
V_id
p495
I5697817
sVrawcites
p496
(lp497
I4695115
aI4772224
aI5015204
aI5069641
aI5139442
aI5213522
aI5299956
aI5310363
aI5362257
asaa(lp498
I5697818
a(dp499
V_id
p500
I5697818
sVrawcites
p501
(lp502
I5046153
aI5106310
aI5190483
asaa(lp503
I5697825
a(dp504
V_id
p505
I5697825
sVrawcites
p506
(lp507
I2882116
aI3330982
aI3665238
aI4005920
aI4018374
aI4204721
aI4259613
aI5205770
aI5210462
aI5210472
aI5229331
aI5302238
aI5589731
asaa(lp508
I5697826
a(dp509
V_id
p510
I5697826
sVrawcites
p511
(lp512
I4286373
aI4616248
aI5182670
aI5268570
asaa(lp513
I5697829
a(dp514
V_id
p515
I5697829
sVrawcites
p516
(lp517
I4548584
aI4654659
aI4712184
aI4828525
aI4964837
aI5031109
aI5083968
aI5209695
asaa(lp518
I5697830
a(dp519
V_id
p520
I5697830
sVrawcites
p521
(lp522
I137724
aI1989303
aI2706816
aI4550734
aI4633876
aI4911677
aI5378192
aI5401203
aI5461725
asaa(lp523
I5697833
a(dp524
V_id
p525
I5697833
sVrawcites
p526
(lp527
I3360023
aI3733663
aI5458433
aI5468100
asaa(lp528
I5697834
a(dp529
V_id
p530
I5697834
sVrawcites
p531
(lp532
I5022192
aI5577954
asaa(lp533
I5697838
a(dp534
V_id
p535
I5697838
sVrawcites
p536
(lp537
I4741257
aI4785722
aI5518446
asaa(lp538
I5697840
a(dp539
V_id
p540
I5697840
sVrawcites
p541
(lp542
I5140744
aI5150277
aI5297004
aI5372543
asaa(lp543
I5697842
a(dp544
V_id
p545
I5697842
sVrawcites
p546
(lp547
I2579662
aI2625094
aI3073235
aI3625134
aI4080083
aI4201121
aI4545291
aI4545292
aI4558637
aI4685265
aI5326318
aI5339582
asaa(lp548
I5697843
a(dp549
V_id
p550
I5697843
sVrawcites
p551
(lp552
I3834712
aI4508345
aI4517558
aI4522399
aI4570934
aI4618150
aI4648600
aI4652998
aI4657256
aI4669731
aI4679143
aI4695053
aI4715604
aI4721307
aI4795155
aI4826169
aI4838552
aI4874173
aI4991848
aI5024439
aI5048833
aI5050881
aI5067712
aI5083785
aI5123649
aI5135224
aI5209479
aI5342047
aI5375830
aI5423539
aI5423541
aI5449173
asaa(lp553
I5697844
a(dp554
V_id
p555
I5697844
sVrawcites
p556
(lp557
I3095653
aI3546791
aI3599221
aI3606688
aI3671668
aI3810627
aI3848082
aI3910322
aI3964179
aI3993861
aI3999307
aI4044380
aI4052798
aI4141548
aI4264924
aI4268744
aI4271351
aI4286323
aI4329684
aI4339798
aI4377870
aI4388008
aI4494197
aI4541806
aI4573072
aI4592546
aI4593904
aI4608601
aI4611996
aI4614342
aI4630040
aI4630108
aI4671772
aI4689742
aI4723212
aI4745468
aI4760527
aI4807031
aI4833710
aI4842278
aI4856787
aI4875164
aI4876592
aI4896791
aI4907079
aI4908761
aI4910672
aI4922522
aI4926255
aI4926256
aI4937853
aI4949256
aI4959783
aI4972504
aI5034807
aI5048833
aI5057915
aI5063610
aI5069453
aI5083272
aI5111927
aI5119294
aI5128520
aI5128752
aI5159549
aI5324035
aI5526357
aI5643088
asaa(lp558
I5697851
a(dp559
V_id
p560
I5697851
sVrawcites
p561
(lp562
I3485494
aI5326328
asaa(lp563
I5697852
a(dp564
V_id
p565
I5697852
sVrawcites
p566
(lp567
I81947
aI221164
aI363898
aI1194212
aI1556064
aI1688310
asaa(lp568
I5697855
a(dp569
V_id
p570
I5697855
sVrawcites
p571
(lp572
I2846228
aI5176384
aI5316298
aI5346219
aI5540436
asaa(lp573
I5697856
a(dp574
V_id
p575
I5697856
sVrawcites
p576
(lp577
I3239228
aI5184828
aI5553852
asaa(lp578
I5697861
a(dp579
V_id
p580
I5697861
sVrawcites
p581
(lp582
I3845671
aI3848691
aI4031780
aI4347762
aI4440042
aI4552241
aI4569252
aI4677873
aI4718303
aI4770280
aI4776444
aI4821591
aI4848508
aI4860612
aI4883138
aI4976671
aI5036940
aI5046998
aI5054335
aI5076112
aI5323871
aI5346442
asaa(lp583
I5697864
a(dp584
V_id
p585
I5697864
sVrawcites
p586
(lp587
I4367528
aI4718310
aI5201251
aI5281190
aI5304102
aI5421791
aI5425284
aI5454763
asaa(lp588
I5697865
a(dp589
V_id
p590
I5697865
sVrawcites
p591
(lp592
I4982622
aI5131298
aI5558599
aI5582559
asaa(lp593
I5697867
a(dp594
V_id
p595
I5697867
sVrawcites
p596
(lp597
I4634946
aI4639853
aI4706790
aI4757886
aI5121820
aI5202833
aI5275267
aI5322150
aI5404289
aI5406474
aI5474506
aI5480363
aI5527238
asaa(lp598
I5697868
a(dp599
V_id
p600
I5697868
sVrawcites
p601
(lp602
I2170951
aI2475504
aI2656737
aI3239699
aI4183267
aI4378623
aI4678952
aI4994005
aI5123883
aI5123884
aI5293107
asaa(lp603
I5697872
a(dp604
V_id
p605
I5697872
sVrawcites
p606
(lp607
I4572504
aI5183450
aI5281191
asaa(lp608
I5697875
a(dp609
V_id
p610
I5697875
sVrawcites
p611
(lp612
I2817522
aI3289992
aI3642278
asaa(lp613
I5697883
a(dp614
V_id
p615
I5697883
sVrawcites
p616
(lp617
I4066065
aI4940453
asaa(lp618
I5697885
a(dp619
V_id
p620
I5697885
sVrawcites
p621
(lp622
I4009331
aI4712133
aI4727417
aI4819059
aI5034888
asaa(lp623
I5697886
a(dp624
V_id
p625
I5697886
sVrawcites
p626
(lp627
I5188120
asaa(lp628
I5697888
a(dp629
V_id
p630
I5697888
sVrawcites
p631
(lp632
I3903877
aI4261343
aI4408598
aI4892112
aI5027791
aI5125910
aI5313934
asaa(lp633
I5697889
a(dp634
V_id
p635
I5697889
sVrawcites
p636
(lp637
I832201
aI1331737
aI1400648
aI1737488
aI2067031
aI2137121
aI2689568
aI3486505
aI3916907
aI4034746
aI4174715
aI4369788
aI4393872
aI4545374
aI4573448
aI4599086
aI4654028
aI4655219
aI4747394
aI4896661
aI4898161
aI4909789
aI4926849
aI4932395
aI4997432
aI5000163
aI5019081
aI5027793
aI5113846
aI5122130
aI5152279
aI5176129
aI5178133
aI5195506
aI5195507
aI5195541
aI5197971
aI5213112
aI5235966
aI5241972
aI5242439
aI5275610
aI5313962
aI5357983
aI5439464
asaa(lp638
I5697891
a(dp639
V_id
p640
I5697891
sVrawcites
p641
(lp642
I1036497
aI1706500
aI4627421
asaa(lp643
I5697896
a(dp644
V_id
p645
I5697896
sVrawcites
p646
(lp647
I3991755
aI4141359
aI4250878
aI4340047
aI4383529
aI4398545
aI4406658
aI4456012
aI4474570
aI4942883
aI5006108
aI5013293
asaa(lp648
I5697897
a(dp649
V_id
p650
I5697897
sVrawcites
p651
(lp652
I4327738
aI4605009
aI4718406
aI4763662
aI4992902
aI5014708
aI5391140
aI5391144
aI5405318
aI5435304
aI5435805
aI5438997
aI5456689
aI5471988
aI5474071
aI5492126
aI5556377
aI5558092
asaa(lp653
I5697898
a(dp654
V_id
p655
I5697898
sVrawcites
p656
(lp657
I4428748
aI4465470
aI4737148
aI4921477
aI4922902
aI5062827
aI5154696
aI5242385
aI5328456
aI5334183
aI5370652
aI5403276
asaa(lp658
I5697899
a(dp659
V_id
p660
I5697899
sVrawcites
p661
(lp662
I4280494
aI4526568
aI4673386
aI4767399
aI4769001
aI5134079
aI5324266
aI5374401
aI5390552
asaa(lp663
I5697900
a(dp664
V_id
p665
I5697900
sVrawcites
p666
(lp667
I4326526
aI4585436
asaa(lp668
I5697901
a(dp669
V_id
p670
I5697901
sVrawcites
p671
(lp672
I3026874
aI3288140
aI3580254
aI3814097
aI4304866
aI4767746
aI4784737
aI4788971
aI4847193
aI4868116
aI4980286
aI5036006
aI5152757
aI5225750
aI5262128
aI5364374
aI5451513
aI5457041
aI5516670
aI5523222
asaa(lp673
I5697902
a(dp674
V_id
p675
I5697902
sVrawcites
p676
(lp677
I3927193
aI4036945
aI4331647
aI4348376
aI4361544
aI4440747
aI4444744
aI4489710
aI4732864
aI4735210
aI4859449
aI5011689
aI5208021
aI5326559
aI5510105
asaa(lp678
I5697903
a(dp679
V_id
p680
I5697903
sVrawcites
p681
(lp682
I4958622
asaa(lp683
I5697662
a(dp684
V_id
p685
I5697662
sVrawcites
p686
(lp687
I3761127
aI4836597
aI4971379
asaa(lp688
I5697663
a(dp689
V_id
p690
I5697663
sVrawcites
p691
(lp692
I5125713
aI5205605
aI5380058
asaa(lp693
I5697665
a(dp694
V_id
p695
I5697665
sVrawcites
p696
(lp697
I4790590
aI5557890
asaa(lp698
I5697786
a(dp699
V_id
p700
I5697786
sVrawcites
p701
(lp702
I2094568
aI2327337
aI3025004
aI3339004
aI5476630
asaa(lp703
I5697790
a(dp704
V_id
p705
I5697790
sVrawcites
p706
(lp707
I2414614
aI2863603
aI2883765
aI3035355
aI5013246
aI5073404
aI5372509
aI5429373
aI5470235
aI5573407
asaa(lp708
I5697791
a(dp709
V_id
p710
I5697791
sVrawcites
p711
(lp712
I2043187
aI2095268
aI3420222
aI3850034
aI3906931
aI3974491
aI4014398
aI4122840
aI4136682
aI4195643
aI4267728
aI4416293
aI4503705
aI4598717
aI4644801
aI4763284
aI4813436
aI4813665
aI4830021
aI4927138
aI4941660
aI5118112
aI5150902
aI5299454
aI5419562
aI5476103
asaa(lp713
I5697792
a(dp714
V_id
p715
I5697792
sVrawcites
p716
(lp717
I4530105
aI4780085
aI4796987
aI4823367
aI4869575
aI5585871
asaa(lp718
I5697796
a(dp719
V_id
p720
I5697796
sVrawcites
p721
(lp722
I2687862
aI3989333
aI4802860
aI4842552
aI5108296
asaa(lp723
I5697800
a(dp724
V_id
p725
I5697800
sVrawcites
p726
(lp727
I3344243
aI3576515
aI3636499
aI4352533
aI4421372
aI4470100
aI4631637
aI4636019
aI4789352
aI4834665
asaa(lp728
I5697803
a(dp729
V_id
p730
I5697803
sVrawcites
p731
(lp732
I5147213
aI5256080
aI5370549
aI5443591
aI5569045
asaa(lp733
I5697804
a(dp734
V_id
p735
I5697804
sVrawcites
p736
(lp737
I2427001
aI3295872
aI3364302
aI3885848
aI4027678
aI4620763
aI5086773
asaa(lp738
I5697806
a(dp739
V_id
p740
I5697806
sVrawcites
p741
(lp742
I4909746
aI5551882
aI5564950
asaa(lp743
I5697807
a(dp744
V_id
p745
I5697807
sVrawcites
p746
(lp747
I3082398
aI3670290
aI3755615
aI3916516
aI4023877
aI4188086
aI4191441
aI4213665
aI4639057
aI4639062
aI4647136
aI4695108
aI4738625
aI4798541
aI4959030
aI5002494
aI5104324
aI5110305
aI5186632
asaa(lp748
I5697813
a(dp749
V_id
p750
I5697813
sVrawcites
p751
(lp752
I3031640
aI3421136
aI5240434
aI5261834
aI5342219
asaa(lp753
I5697820
a(dp754
V_id
p755
I5697820
sVrawcites
p756
(lp757
I2096457
aI4549869
asaa(lp758
I5697821
a(dp759
V_id
p760
I5697821
sVrawcites
p761
(lp762
I537612
aI599125
aI624674
aI938911
aI1807254
aI1813552
aI1853694
aI2058361
aI2064195
aI2347906
aI2372247
aI2672115
aI2987031
aI2989022
aI3478620
aI3769930
aI4529387
aI4540369
aI4619584
aI4642059
aI4741670
aI4767269
aI4790782
aI4792314
aI4793773
aI4795382
aI4828518
aI4832570
aI4832636
aI4840136
aI4887982
aI4887983
aI4897058
aI4932907
aI4963108
aI4993848
aI5009621
aI5017168
aI5030149
aI5186609
aI5230644
aI5232386
aI5249995
aI5342228
aI5344349
aI5352141
aI5366398
asaa(lp763
I5697823
a(dp764
V_id
p765
I5697823
sVrawcites
p766
(lp767
I4414485
aI4846748
asaa(lp768
I5697824
a(dp769
V_id
p770
I5697824
sVrawcites
p771
(lp772
I1954691
aI2851408
aI2867541
aI2959483
aI3070441
aI3108904
aI3314871
aI3360450
aI3481733
aI3525679
aI3554889
aI3808048
aI3898146
aI4482447
aI4507562
aI4512912
aI4542038
aI4633131
aI4647400
aI4684540
aI4687825
aI4758449
aI4816717
aI4889690
aI4892757
aI4900584
aI4956202
aI4990416
aI4994205
aI5085958
aI5124072
aI5124558
aI5156770
aI5166456
aI5204021
aI5213712
aI5242620
aI5296117
aI5302423
aI5438240
asaa(lp773
I5697827
a(dp774
V_id
p775
I5697827
sVrawcites
p776
(lp777
I3118077
aI3244990
aI3510712
aI3588593
aI4121130
aI4435672
aI4547279
aI4577133
aI4618801
aI4719388
aI4857799
aI4874981
aI5015912
aI5064396
aI5089292
aI5235244
aI5272419
aI5347201
aI5424605
aI5462467
aI5463271
asaa(lp778
I5697828
a(dp779
V_id
p780
I5697828
sVrawcites
p781
(lp782
I385225
aI3581430
aI3667136
aI4297807
aI4496149
aI4759551
aI5064195
aI5465909
asaa(lp783
I5697831
a(dp784
V_id
p785
I5697831
sVrawcites
p786
(lp787
I1740551
aI3886693
aI4052822
aI4306382
aI5148732
aI5472368
asaa(lp788
I5697832
a(dp789
V_id
p790
I5697832
sVrawcites
p791
(lp792
I1541001
aI2973605
aI3089292
aI3457682
aI3662498
aI3744187
aI3813828
aI3892092
aI3925936
aI4369603
aI4593495
aI4805348
aI4916868
aI4962616
aI5097630
aI5187901
aI5197230
aI5205077
aI5274960
asaa(lp793
I5697835
a(dp794
V_id
p795
I5697835
sVrawcites
p796
(lp797
I1139817
aI3831484
aI3869795
aI4454901
aI4637370
aI4962748
aI5265340
asaa(lp798
I5697836
a(dp799
V_id
p800
I5697836
sVrawcites
p801
(lp802
I1433628
aI3518718
aI3663991
aI3921255
aI3927440
aI3975796
aI4059868
aI4265001
aI4283813
aI4339849
aI4418445
aI4467500
aI4731907
aI5186679
aI5279517
aI5292278
asaa(lp803
I5697837
a(dp804
V_id
p805
I5697837
sVrawcites
p806
(lp807
I4682386
aI4873746
aI4993114
aI5001812
aI5045024
aI5269722
aI5372539
aI5474491
asaa(lp808
I5697839
a(dp809
V_id
p810
I5697839
sVrawcites
p811
(lp812
I2948354
aI4809391
aI4928440
aI5245763
aI5309650
aI5338248
aI5344615
asaa(lp813
I5697841
a(dp814
V_id
p815
I5697841
sVrawcites
p816
(lp817
I1691285
aI1921305
aI2759411
aI3225679
aI3264971
aI3736858
aI3921507
aI4610196
aI4633770
aI5014610
aI5188561
aI5232403
asaa(lp818
I5697845
a(dp819
V_id
p820
I5697845
sVrawcites
p821
(lp822
I2667049
aI3455286
aI3884087
aI4800996
aI5083981
asaa(lp823
I5697846
a(dp824
V_id
p825
I5697846
sVrawcites
p826
(lp827
I2124013
aI2251128
aI4580672
aI4601676
aI5013281
aI5257687
asaa(lp828
I5697847
a(dp829
V_id
p830
I5697847
sVrawcites
p831
(lp832
I1965742
aI1978922
aI2738660
aI3131554
aI3608131
aI3749214
aI4127080
aI4201066
aI4287791
aI4712663
aI4774847
aI5033323
aI5522242
asaa(lp833
I5697848
a(dp834
V_id
p835
I5697848
sVrawcites
p836
(lp837
I1283787
aI1460212
aI2300689
aI2483616
aI2625883
aI2848882
aI3299722
aI3448591
aI3500754
aI3635050
aI3779451
aI3788099
aI3791169
aI3834183
aI3855817
aI3902333
aI3973867
aI4044628
aI4121532
aI4125344
aI4176519
aI4230438
aI4407631
aI4659245
aI4795012
aI4934138
aI5577963
asaa(lp838
I5697849
a(dp839
V_id
p840
I5697849
sVrawcites
p841
(lp842
I430267
aI1128430
aI1243347
aI1281918
aI1513944
aI1581802
aI3073630
aI3087314
aI3405540
aI3975923
aI4496331
aI4565541
aI4643699
aI4840601
aI5102255
aI5205789
asaa(lp843
I5697850
a(dp844
V_id
p845
I5697850
sVrawcites
p846
(lp847
I2199926
aI2380952
aI2571318
aI2772547
aI2978885
aI3293884
aI4348874
aI4397171
aI4622022
aI4838832
aI4915536
aI5226853
aI5243874
asaa(lp848
I5697853
a(dp849
V_id
p850
I5697853
sVrawcites
p851
(lp852
I1167106
aI1568888
aI1582836
aI1619566
aI1658581
aI1669432
aI1868286
aI1916792
aI1946208
aI2041675
aI2087685
aI2201633
aI2460435
aI2960338
aI3212783
aI3761095
aI3815921
aI3819181
aI3976299
aI4214754
aI4313607
aI4322083
aI4332388
aI4432549
aI4511145
aI4681321
aI4809977
aI4854581
aI4872685
aI4930781
aI5042806
aI5067715
aI5180166
aI5240252
aI5271620
aI5301945
aI5480152
asaa(lp853
I5697854
a(dp854
V_id
p855
I5697854
sVrawcites
p856
(lp857
I5094383
aI5106094
aI5294037
asaa(lp858
I5697857
a(dp859
V_id
p860
I5697857
sVrawcites
p861
(lp862
I2912245
aI3458194
aI3561760
aI3934875
aI4076240
aI4086115
aI4754975
aI5332212
aI5354059
aI5429352
asaa(lp863
I5697858
a(dp864
V_id
p865
I5697858
sVrawcites
p866
(lp867
I150060
aI607315
aI1418314
aI2201551
aI3675928
aI3726526
aI3784204
aI4078801
aI4111419
aI4793769
aI5074696
aI5207720
aI5275410
aI5366219
aI5482274
asaa(lp868
I5697860
a(dp869
V_id
p870
I5697860
sVrawcites
p871
(lp872
I5058461
aI5311795
aI5468198
aI5501645
aI5505673
aI5527236
aI5547437
aI5551931
aI5573478
asaa(lp873
I5697862
a(dp874
V_id
p875
I5697862
sVrawcites
p876
(lp877
I2918832
aI2922314
aI3382735
aI3473639
aI3487726
aI3614999
aI3713517
aI3835971
aI3946840
aI4135611
aI4186827
aI4296650
aI4407399
aI4432443
aI4460075
aI4472077
aI4516444
aI4552255
aI4592251
aI4607736
aI4644819
aI4785926
aI4934216
aI4944193
aI4961485
aI5190129
aI5194057
aI5195623
aI5285879
aI5323888
aI5482512
aI5538482
aI5540120
aI5547431
asaa(lp878
I5697863
a(dp879
V_id
p880
I5697863
sVrawcites
p881
(lp882
I2856784
aI4159653
aI4576055
aI5299987
asaa(lp883
I5697866
a(dp884
V_id
p885
I5697866
sVrawcites
p886
(lp887
I4583627
aI4735113
aI4881627
aI5035308
aI5067372
aI5085301
aI5086894
aI5143191
aI5213186
aI5219055
aI5226513
aI5435795
asaa(lp888
I5697869
a(dp889
V_id
p890
I5697869
sVrawcites
p891
(lp892
I319686
aI3465592
aI3588101
aI3640530
aI3848467
aI4082267
aI4138106
aI4184678
aI4231568
aI4261562
aI4540171
aI4609189
aI4678184
aI4751917
aI4765613
aI4770411
aI4811946
aI4815549
aI4822036
aI4842274
aI4848737
aI4869497
aI4930770
aI4979733
aI5011142
aI5020794
aI5037089
aI5039092
aI5060938
aI5117170
aI5147263
aI5180351
aI5263909
aI5308303
aI5354248
aI5380258
aI5387170
asaa(lp893
I5697870
a(dp894
V_id
p895
I5697870
sVrawcites
p896
(lp897
I4856775
aI5050861
aI5125646
aI5176596
aI5290210
aI5322490
aI5354247
aI5447216
aI5474509
aI5599258
asaa(lp898
I5697871
a(dp899
V_id
p900
I5697871
sVrawcites
p901
(lp902
I1044018
aI2719038
aI3502329
aI3771758
aI3771785
aI3913908
aI3971556
aI4021040
aI4101123
aI4330118
aI4489934
aI4566690
aI4579337
aI4639979
aI4646398
aI4722523
aI4773641
aI4778173
aI4787624
aI4801137
aI4817944
aI4880229
aI4893810
aI5163887
aI5295934
asaa(lp903
I5697873
a(dp904
V_id
p905
I5697873
sVrawcites
p906
(lp907
I399699
aI1956498
aI3343837
aI3544106
aI3761083
aI5232425
asaa(lp908
I5697874
a(dp909
V_id
p910
I5697874
sVrawcites
p911
(lp912
I5492520
aI5591111
asaa(lp913
I5697876
a(dp914
V_id
p915
I5697876
sVrawcites
p916
(lp917
I2005831
aI2318899
aI2442126
aI2876933
aI2892430
aI3024950
aI3381645
aI3385248
aI3484034
aI3523512
aI3690223
aI3734361
aI4072117
aI4583899
aI4806055
aI5022954
aI5088643
aI5149392
aI5203819
aI5435803
aI5484374
aI5556004
aI5601669
asaa(lp918
I5697877
a(dp919
V_id
p920
I5697877
sVrawcites
p921
(lp922
I3287011
aI3401609
aI3968623
aI4735600
aI4917663
asaa(lp923
I5697878
a(dp924
V_id
p925
I5697878
sVrawcites
p926
(lp927
I3320864
aI3877353
aI4295842
aI4530693
aI5087237
aI5092207
aI5300009
asaa(lp928
I5697879
a(dp929
V_id
p930
I5697879
sVrawcites
p931
(lp932
I4928875
aI5174493
aI5289972
aI5294041
aI5328438
aI5360159
aI5360160
aI5370304
aI5376048
aI5391136
aI5402934
asaa(lp933
I5697880
a(dp934
V_id
p935
I5697880
sVrawcites
p936
(lp937
I2190414
aI2230168
aI2253446
aI3580141
aI3961781
aI4570923
aI4616815
aI4618302
aI5121916
aI5137506
aI5180157
aI5183246
aI5275395
aI5374233
aI5433431
asaa(lp938
I5697881
a(dp939
V_id
p940
I5697881
sVrawcites
p941
(lp942
I4159823
aI4345906
aI4352671
aI5088708
aI5242823
asaa(lp943
I5697884
a(dp944
V_id
p945
I5697884
sVrawcites
p946
(lp947
I4411268
aI4539993
aI4735205
aI4868908
aI5098369
aI5188105
aI5195518
aI5203326
aI5231988
aI5251621
aI5324323
aI5328442
aI5344386
aI5354316
aI5358519
asaa(lp948
I5697887
a(dp949
V_id
p950
I5697887
sVrawcites
p951
(lp952
I3162190
aI4646722
aI4721097
aI4741326
aI4825850
aI4869238
aI4886049
aI4907395
aI4991564
aI4991565
aI4997084
aI5050585
aI5058567
aI5105800
aI5201908
aI5419310
asaa(lp953
I5697890
a(dp954
V_id
p955
I5697890
sVrawcites
p956
(lp957
I510516
aI668823
aI1252177
aI1319904
aI1374984
aI1510304
aI1613373
aI3162191
aI4024859
asaa(lp958
I5697892
a(dp959
V_id
p960
I5697892
sVrawcites
p961
(lp962
I2353129
aI3756222
aI4644938
aI4944758
aI5115806
aI5178137
aI5303696
aI5326364
aI5327882
asaa(lp963
I5697893
a(dp964
V_id
p965
I5697893
sVrawcites
p966
(lp967
I2067567
aI2832334
aI3707963
aI4489718
aI4697583
aI4726361
aI4771768
aI5000169
aI5002044
aI5013037
aI5025801
aI5092321
aI5103807
asaa(lp968
I5697894
a(dp969
V_id
p970
I5697894
sVrawcites
p971
(lp972
I2904040
aI3724452
aI3776224
aI3910263
aI4463750
aI4539979
aI4541421
aI4632099
aI4732144
aI4807605
aI4913135
aI5062415
aI5171296
aI5195947
aI5203765
aI5320596
asaa(lp973
I5697895
a(dp974
V_id
p975
I5697895
sVrawcites
p976
(lp977
I2391693
aI2851031
aI3072118
aI4535763
aI4541421
aI4620530
aI4648388
aI4890631
aI5062415
aI5156588
aI5171296
aI5203765
aI5261873
aI5380325
aI5456266
aI5527309
aI5537704
asaa(lp978
I5697904
a(dp979
V_id
p980
I5697904
sVrawcites
p981
(lp982
I4210173
aI4222407
aI4244378
aI4246932
aI4274445
aI4310017
aI4354492
aI4429856
aI4506691
aI4535820
aI4556086
aI4610276
aI4666429
aI4683916
aI4762149
aI4765372
aI4908018
aI4915687
aI5127904
aI5184652
aI5190067
aI5431185
asaa(lp983
I5697657
a(dp984
V_id
p985
I5697657
sVrawcites
p986
(lp987
I3044921
aI3130819
aI3339673
aI3552525
aI3600249
aI3616141
aI3733229
aI3991245
aI4197341
aI4200310
aI4352484
aI4635981
aI4658941
aI4675241
aI4711481
aI4770420
aI4806573
aI4830883
aI4986694
aI5052732
aI5199755
aI5248129
asaa(lp988
I5697658
a(dp989
V_id
p990
I5697658
sVrawcites
p991
(lp992
I4473247
aI4515507
aI4610473
aI4753004
aI4796357
aI5056844
aI5106138
asaa(lp993
I5697659
a(dp994
V_id
p995
I5697659
sVrawcites
p996
(lp997
I90319
aI874547
aI3304111
aI3937510
aI4576408
aI4768288
aI4973095
aI5486029
asaa(lp998
I5697660
a(dp999
V_id
p1000
I5697660
sVrawcites
p1001
(lp1002
I338885
aI2436247
aI3790050
aI4248469
asaa(lp1003
I5697661
a(dp1004
V_id
p1005
I5697661
sVrawcites
p1006
(lp1007
I1182583
aI3226147
aI3799416
aI4621855
aI5150938
asaa(lp1008
I5697664
a(dp1009
V_id
p1010
I5697664
sVrawcites
p1011
(lp1012
I2811321
aI3627376
aI4023857
aI4172614
aI5125713
asaa(lp1013
I5697666
a(dp1014
V_id
p1015
I5697666
sVrawcites
p1016
(lp1017
I2193647
aI4605258
aI4672898
aI4852940
asaa(lp1018
I5697667
a(dp1019
V_id
p1020
I5697667
sVrawcites
p1021
(lp1022
I4709943
aI4978136
aI5201544
aI5456494
aI5482319
asaa(lp1023
I5697668
a(dp1024
V_id
p1025
I5697668
sVrawcites
p1026
(lp1027
I1884497
aI2894561
aI5054852
asaa(lp1028
I5697669
a(dp1029
V_id
p1030
I5697669
sVrawcites
p1031
(lp1032
I2990082
aI2990570
aI3099398
aI3178761
aI3295714
aI3701450
aI3984028
aI4366998
aI4458963
aI4744613
aI5170972
aI5361456
asaa(lp1033
I5697671
a(dp1034
V_id
p1035
I5697671
sVrawcites
p1036
(lp1037
I570033
aI1081326
aI2147361
aI3269773
aI3712670
aI4563038
aI4779924
aI4804221
aI4909522
aI5318344
aI5322345
aI5533783
aI5553915
asaa(lp1038
I5697674
a(dp1039
V_id
p1040
I5697674
sVrawcites
p1041
(lp1042
I4556185
aI4606532
aI4702522
aI4712834
aI4828213
asaa(lp1043
I5697675
a(dp1044
V_id
p1045
I5697675
sVrawcites
p1046
(lp1047
I1718319
aI2685963
aI2941773
aI3097016
aI3126140
aI3128984
aI3220362
aI3566808
aI3727979
aI4424906
aI4428555
aI4556253
aI4648658
aI4687248
aI5382081
asaa(lp1048
I3930638
a(dp1049
V_id
p1050
I3930638
sVrawcites
p1051
(lp1052
I1954242
aI2362904
aI3274744
aI3748009
asaa(lp1053
I3930642
a(dp1054
V_id
p1055
I3930642
sVrawcites
p1056
(lp1057
I916394
aI2123593
aI2933306
asaa(lp1058
I3930646
a(dp1059
V_id
p1060
I3930646
sVrawcites
p1061
(lp1062
I1853620
aI2167847
asaa(lp1063
I3930671
a(dp1064
V_id
p1065
I3930671
sVrawcites
p1066
(lp1067
I3331854
aI3619238
aI3849164
asaa(lp1068
I3930686
a(dp1069
V_id
p1070
I3930686
sVrawcites
p1071
(lp1072
I3011833
aI3228731
aI3428071
aI3473849
aI3653722
asaa(lp1073
I3930757
a(dp1074
V_id
p1075
I3930757
sVrawcites
p1076
(lp1077
I61650
aI2997015
asaa(lp1078
I3930775
a(dp1079
V_id
p1080
I3930775
sVrawcites
p1081
(lp1082
I1676831
aI3221546
asaa(lp1083
I3930785
a(dp1084
V_id
p1085
I3930785
sVrawcites
p1086
(lp1087
I1057585
aI2018094
aI2140277
asaa(lp1088
I3930826
a(dp1089
V_id
p1090
I3930826
sVrawcites
p1091
(lp1092
I3218143
asaa(lp1093
I3930830
a(dp1094
V_id
p1095
I3930830
sVrawcites
p1096
(lp1097
I3260586
asaa(lp1098
I4559764
a(dp1099
V_id
p1100
I4559764
sVrawcites
p1101
(lp1102
I3025649
aI3053723
aI3513629
aI3558406
asaa(lp1103
I4559794
a(dp1104
V_id
p1105
I4559794
sVrawcites
p1106
(lp1107
I1462180
aI3552157
asaa(lp1108
I4559817
a(dp1109
V_id
p1110
I4559817
sVrawcites
p1111
(lp1112
I3633419
aI4170898
asaa(lp1113
I4559866
a(dp1114
V_id
p1115
I4559866
sVrawcites
p1116
(lp1117
I3090395
aI4179244
asaa(lp1118
I4559897
a(dp1119
V_id
p1120
I4559897
sVrawcites
p1121
(lp1122
I3168100
aI3885522
asaa(lp1123
I4559923
a(dp1124
V_id
p1125
I4559923
sVrawcites
p1126
(lp1127
I407707
aI4177791
asaa(lp1128
I4551781
a(dp1129
V_id
p1130
I4551781
sVrawcites
p1131
(lp1132
saa(lp1133
I3930840
a(dp1134
V_id
p1135
I3930840
sVrawcites
p1136
(lp1137
I3224865
aI3630717
aI3672865
asaa(lp1138
I3930846
a(dp1139
V_id
p1140
I3930846
sVrawcites
p1141
(lp1142
I3333953
aI3560201
aI3606290
aI3674466
asaa(lp1143
I3930848
a(dp1144
V_id
p1145
I3930848
sVrawcites
p1146
(lp1147
I3667939
asaa(lp1148
I3930901
a(dp1149
V_id
p1150
I3930901
sVrawcites
p1151
(lp1152
I3676085
asaa(lp1153
I3930902
a(dp1154
V_id
p1155
I3930902
sVrawcites
p1156
(lp1157
I3793691
asaa(lp1158
I3930910
a(dp1159
V_id
p1160
I3930910
sVrawcites
p1161
(lp1162
I3765966
asaa(lp1163
I3930918
a(dp1164
V_id
p1165
I3930918
sVrawcites
p1166
(lp1167
I3245018
aI3662596
asaa(lp1168
I3930952
a(dp1169
V_id
p1170
I3930952
sVrawcites
p1171
(lp1172
I3788947
asaa(lp1173
I3930972
a(dp1174
V_id
p1175
I3930972
sVrawcites
p1176
(lp1177
I3677922
aI3703454
asaa(lp1178
I3930997
a(dp1179
V_id
p1180
I3930997
sVrawcites
p1181
(lp1182
I1628046
aI3382976
asaa(lp1183
I3931151
a(dp1184
V_id
p1185
I3931151
sVrawcites
p1186
(lp1187
saa(lp1188
I3931153
a(dp1189
V_id
p1190
I3931153
sVrawcites
p1191
(lp1192
I3268513
aI3433784
asaa(lp1193
I3931154
a(dp1194
V_id
p1195
I3931154
sVrawcites
p1196
(lp1197
saa(lp1198
I3931163
a(dp1199
V_id
p1200
I3931163
sVrawcites
p1201
(lp1202
I3413302
asaa(lp1203
I3931164
a(dp1204
V_id
p1205
I3931164
sVrawcites
p1206
(lp1207
I3887552
asaa(lp1208
I3931165
a(dp1209
V_id
p1210
I3931165
sVrawcites
p1211
(lp1212
saa(lp1213
I3931168
a(dp1214
V_id
p1215
I3931168
sVrawcites
p1216
(lp1217
I3182058
aI3830805
aI3835128
aI3423414
aI3787430
asaa(lp1218
I3931178
a(dp1219
V_id
p1220
I3931178
sVrawcites
p1221
(lp1222
I3794637
asaa(lp1223
I3931185
a(dp1224
V_id
p1225
I3931185
sVrawcites
p1226
(lp1227
saa(lp1228
I3931189
a(dp1229
V_id
p1230
I3931189
sVrawcites
p1231
(lp1232
I3285914
aI3442900
aI3793329
asaa(lp1233
I3931192
a(dp1234
V_id
p1235
I3931192
sVrawcites
p1236
(lp1237
saa(lp1238
I3931193
a(dp1239
V_id
p1240
I3931193
sVrawcites
p1241
(lp1242
saa(lp1243
I3931198
a(dp1244
V_id
p1245
I3931198
sVrawcites
p1246
(lp1247
saa(lp1248
I3931204
a(dp1249
V_id
p1250
I3931204
sVrawcites
p1251
(lp1252
I3272811
aI3850919
asaa(lp1253
I3931207
a(dp1254
V_id
p1255
I3931207
sVrawcites
p1256
(lp1257
saa(lp1258
I3931220
a(dp1259
V_id
p1260
I3931220
sVrawcites
p1261
(lp1262
I3682956
aI3714182
asaa(lp1263
I3931223
a(dp1264
V_id
p1265
I3931223
sVrawcites
p1266
(lp1267
I3592824
asaa(lp1268
I3931226
a(dp1269
V_id
p1270
I3931226
sVrawcites
p1271
(lp1272
saa(lp1273
I3931236
a(dp1274
V_id
p1275
I3931236
sVrawcites
p1276
(lp1277
I2453890
aI3527771
asaa(lp1278
I3931241
a(dp1279
V_id
p1280
I3931241
sVrawcites
p1281
(lp1282
I3770812
asaa(lp1283
I3931245
a(dp1284
V_id
p1285
I3931245
sVrawcites
p1286
(lp1287
saa(lp1288
I3931246
a(dp1289
V_id
p1290
I3931246
sVrawcites
p1291
(lp1292
saa(lp1293
I3931255
a(dp1294
V_id
p1295
I3931255
sVrawcites
p1296
(lp1297
saa(lp1298
I3931256
a(dp1299
V_id
p1300
I3931256
sVrawcites
p1301
(lp1302
I3846411
asaa(lp1303
I3931259
a(dp1304
V_id
p1305
I3931259
sVrawcites
p1306
(lp1307
I2365290
aI2585129
aI2862942
aI3678107
aI3692809
asaa(lp1308
I3931276
a(dp1309
V_id
p1310
I3931276
sVrawcites
p1311
(lp1312
saa(lp1313
I3931281
a(dp1314
V_id
p1315
I3931281
sVrawcites
p1316
(lp1317
saa(lp1318
I3931283
a(dp1319
V_id
p1320
I3931283
sVrawcites
p1321
(lp1322
saa(lp1323
I3931284
a(dp1324
V_id
p1325
I3931284
sVrawcites
p1326
(lp1327
saa(lp1328
I3931286
a(dp1329
V_id
p1330
I3931286
sVrawcites
p1331
(lp1332
I3828093
asaa(lp1333
I3931293
a(dp1334
V_id
p1335
I3931293
sVrawcites
p1336
(lp1337
saa(lp1338
I3931300
a(dp1339
V_id
p1340
I3931300
sVrawcites
p1341
(lp1342
saa(lp1343
I3931301
a(dp1344
V_id
p1345
I3931301
sVrawcites
p1346
(lp1347
I3741988
asaa(lp1348
I3931306
a(dp1349
V_id
p1350
I3931306
sVrawcites
p1351
(lp1352
saa(lp1353
I3931309
a(dp1354
V_id
p1355
I3931309
sVrawcites
p1356
(lp1357
I383992
aI3515752
asaa(lp1358
I3931312
a(dp1359
V_id
p1360
I3931312
sVrawcites
p1361
(lp1362
saa(lp1363
I3931317
a(dp1364
V_id
p1365
I3931317
sVrawcites
p1366
(lp1367
I3714182
aI3715396
asaa(lp1368
I3931343
a(dp1369
V_id
p1370
I3931343
sVrawcites
p1371
(lp1372
I2485180
aI3714255
asaa(lp1373
I5179408
a(dp1374
V_id
p1375
I5179408
sVrawcites
p1376
(lp1377
saa(lp1378
I5697670
a(dp1379
V_id
p1380
I5697670
sVrawcites
p1381
(lp1382
I3761127
aI3847434
aI4738485
aI5246271
aI5295729
aI5299853
aI5310247
aI5318341
aI5366268
aI5393123
asaa(lp1383
I5697672
a(dp1384
V_id
p1385
I5697672
sVrawcites
p1386
(lp1387
I4671569
aI5007677
aI5449219
aI5474358
asaa(lp1388
I5697673
a(dp1389
V_id
p1390
I5697673
sVrawcites
p1391
(lp1392
I1986
aI4316632
aI4633546
aI5112108
aI5411316
asaa(lp1393
I5697676
a(dp1394
V_id
p1395
I5697676
sVrawcites
p1396
(lp1397
I2801836
aI3232670
aI3459453
aI3653716
aI3830545
aI4298230
aI4339153
aI4406498
aI4607889
aI4998776
asaa(lp1398
I5697677
a(dp1399
V_id
p1400
I5697677
sVrawcites
p1401
(lp1402
I1835525
aI3112965
aI3310999
aI5259271
asaa(lp1403
I5697682
a(dp1404
V_id
p1405
I5697682
sVrawcites
p1406
(lp1407
I5178442
aI5295738
aI5498071
asaa(lp1408
I5697684
a(dp1409
V_id
p1410
I5697684
sVrawcites
p1411
(lp1412
I2922527
aI4668027
aI4875743
aI4998618
aI5099995
aI5232275
aI5344028
aI5524976
asaa(lp1413
I5697686
a(dp1414
V_id
p1415
I5697686
sVrawcites
p1416
(lp1417
I1985412
aI2664147
aI2664331
aI3910659
aI4184433
asaa(lp1418
I5697690
a(dp1419
V_id
p1420
I5697690
sVrawcites
p1421
(lp1422
I5257168
asaa(lp1423
I5697692
a(dp1424
V_id
p1425
I5697692
sVrawcites
p1426
(lp1427
I5260857
aI5573326
asaa(lp1428
I5697695
a(dp1429
V_id
p1430
I5697695
sVrawcites
p1431
(lp1432
I2611019
aI5036442
aI5079679
aI5081568
aI5622423
asaa(lp1433
I5697697
a(dp1434
V_id
p1435
I5697697
sVrawcites
p1436
(lp1437
I3808495
aI4661890
aI4754375
aI4924368
aI5285361
asaa(lp1438
I5697698
a(dp1439
V_id
p1440
I5697698
sVrawcites
p1441
(lp1442
I4802072
aI5367443
aI5526246
asaa(lp1443
I5697699
a(dp1444
V_id
p1445
I5697699
sVrawcites
p1446
(lp1447
I5179269
aI5349172
asaa(lp1448
I5697700
a(dp1449
V_id
p1450
I5697700
sVrawcites
p1451
(lp1452
I4546419
aI5193897
aI5343376
asaa(lp1453
I5697706
a(dp1454
V_id
p1455
I5697706
sVrawcites
p1456
(lp1457
I1422672
aI2839594
aI3745828
aI3886912
aI3923552
aI4075036
aI4385197
aI4912977
aI5064506
aI5192132
aI5201840
asaa(lp1458
I5697708
a(dp1459
V_id
p1460
I5697708
sVrawcites
p1461
(lp1462
I3391965
aI4710034
aI5246294
aI5524985
asaa(lp1463
I5697709
a(dp1464
V_id
p1465
I5697709
sVrawcites
p1466
(lp1467
I4193645
aI4319790
aI4875263
aI5118210
aI5129739
asaa(lp1468
I5697712
a(dp1469
V_id
p1470
I5697712
sVrawcites
p1471
(lp1472
I5210545
aI5241324
aI5396584
asaa(lp1473
I5697714
a(dp1474
V_id
p1475
I5697714
sVrawcites
p1476
(lp1477
I4848945
aI5023628
aI5181787
aI5366302
asaa(lp1478
I5697715
a(dp1479
V_id
p1480
I5697715
sVrawcites
p1481
(lp1482
I3647221
aI4064194
aI4933259
aI5286559
aI5290623
aI5298034
aI5362549
aI5420613
aI5456969
aI5484644
asaa(lp1483
I5697718
a(dp1484
V_id
p1485
I5697718
sVrawcites
p1486
(lp1487
I3890480
aI4322587
aI4791258
aI5280146
asaa(lp1488
I5697722
a(dp1489
V_id
p1490
I5697722
sVrawcites
p1491
(lp1492
I436533
aI1180849
aI1705306
aI3104667
aI3762823
aI3785740
aI4009599
aI5509745
asaa(lp1493
I5697723
a(dp1494
V_id
p1495
I5697723
sVrawcites
p1496
(lp1497
I2488979
aI3108830
aI3164389
aI3350122
aI3363921
aI4070123
aI4231673
aI5154530
aI5395176
asaa(lp1498
I5697737
a(dp1499
V_id
p1500
I5697737
sVrawcites
p1501
(lp1502
I3751177
asaa(lp1503
I5697739
a(dp1504
V_id
p1505
I5697739
sVrawcites
p1506
(lp1507
I1991500
aI2296573
aI2462997
aI2835172
aI3163081
aI3752595
aI3803978
aI4077736
aI4709455
aI4709465
aI4902176
aI4981403
aI5025548
aI5125142
aI5385436
aI5413439
aI5586382
asaa(lp1508
I5697742
a(dp1509
V_id
p1510
I5697742
sVrawcites
p1511
(lp1512
I2715040
aI2978993
aI3345955
aI4236854
aI4498824
aI4737056
aI4834599
aI4917429
aI4986706
aI5028185
aI5044682
aI5082404
aI5265993
aI5522685
aI5526972
asaa(lp1513
I5697747
a(dp1514
V_id
p1515
I5697747
sVrawcites
p1516
(lp1517
I1980267
aI4552497
aI5366333
asaa(lp1518
I5697748
a(dp1519
V_id
p1520
I5697748
sVrawcites
p1521
(lp1522
I4682928
aI4720130
aI4773687
aI4850631
aI4951601
aI4960298
aI5004399
aI5046909
aI5054831
aI5061144
aI5445486
asaa(lp1523
I5697749
a(dp1524
V_id
p1525
I5697749
sVrawcites
p1526
(lp1527
I4664578
aI4776744
aI4781511
aI4785962
aI4867629
aI4990047
aI5048164
aI5162047
aI5273423
aI5277579
asaa(lp1528
I5697757
a(dp1529
V_id
p1530
I5697757
sVrawcites
p1531
(lp1532
I3788585
aI4907768
aI4943019
aI5186422
asaa(lp1533
I5697760
a(dp1534
V_id
p1535
I5697760
sVrawcites
p1536
(lp1537
I3596777
aI3698534
aI3788495
aI3887013
aI4162709
aI4273488
aI4777890
aI4828040
aI4832130
aI4966239
aI5165617
aI5165843
aI5217078
aI5230602
aI5269379
asaa(lp1538
I5697764
a(dp1539
V_id
p1540
I5697764
sVrawcites
p1541
(lp1542
I4553904
aI4821514
aI5201803
aI5203678
asaa(lp1543
I5697768
a(dp1544
V_id
p1545
I5697768
sVrawcites
p1546
(lp1547
I4030546
aI4669961
aI5139090
aI5417281
aI5431230
aI5549465
asaa(lp1548
I5697769
a(dp1549
V_id
p1550
I5697769
sVrawcites
p1551
(lp1552
I4447192
aI4789308
aI4834623
aI5343103
aI5554010
aI5593287
asaa(lp1553
I5697775
a(dp1554
V_id
p1555
I5697775
sVrawcites
p1556
(lp1557
I4538983
aI4832596
aI5120215
aI5199865
aI5242297
aI5326256
aI5458482
aI5558514
asaa(lp1558
I5697779
a(dp1559
V_id
p1560
I5697779
sVrawcites
p1561
(lp1562
I4011602
aI4040129
aI4468201
aI4988292
aI5015186
aI5052930
aI5066224
aI5108289
aI5174755
aI5192303
asaa(lp1563
I5697541
a(dp1564
V_id
p1565
I5697541
sVrawcites
p1566
(lp1567
I3330462
aI3543987
aI3703981
aI3708097
aI4585154
aI4619393
aI4669648
aI4729164
aI5240161
aI5267682
asaa(lp1568
I5697544
a(dp1569
V_id
p1570
I5697544
sVrawcites
p1571
(lp1572
I4122990
aI5056971
asaa(lp1573
I5697678
a(dp1574
V_id
p1575
I5697678
sVrawcites
p1576
(lp1577
I4636673
asaa(lp1578
I5697679
a(dp1579
V_id
p1580
I5697679
sVrawcites
p1581
(lp1582
I4092853
aI4876527
aI5476311
asaa(lp1583
I5697680
a(dp1584
V_id
p1585
I5697680
sVrawcites
p1586
(lp1587
I4715667
aI4846535
aI4865399
aI4900102
aI4952002
aI5271667
aI5558414
asaa(lp1588
I5697681
a(dp1589
V_id
p1590
I5697681
sVrawcites
p1591
(lp1592
I4491920
aI4715662
aI5001640
aI5416709
aI5513907
asaa(lp1593
I5697683
a(dp1594
V_id
p1595
I5697683
sVrawcites
p1596
(lp1597
I702868
aI2077919
aI2560307
asaa(lp1598
I5697687
a(dp1599
V_id
p1600
I5697687
sVrawcites
p1601
(lp1602
I4254600
aI4406519
aI4730897
aI4984871
aI5185677
aI5317449
aI5349400
asaa(lp1603
I5697689
a(dp1604
V_id
p1605
I5697689
sVrawcites
p1606
(lp1607
I2693165
aI2699141
aI3200208
aI3846605
aI4012632
aI4163883
aI4583151
aI4807091
aI4967305
aI5039832
aI5093764
asaa(lp1608
I5697691
a(dp1609
V_id
p1610
I5697691
sVrawcites
p1611
(lp1612
I1691011
aI2003022
aI2332383
aI3739336
aI4281311
aI4701743
aI5057985
aI5091828
aI5385062
aI5426417
aI5537298
asaa(lp1613
I5697693
a(dp1614
V_id
p1615
I5697693
sVrawcites
p1616
(lp1617
I2272688
aI4715569
aI4892987
aI5143331
aI5219068
aI5323297
aI5350140
aI5442530
asaa(lp1618
I5697694
a(dp1619
V_id
p1620
I5697694
sVrawcites
p1621
(lp1622
I976359
aI1292195
aI1709889
aI1831902
aI2328769
aI2584563
aI2735285
aI3607998
aI3890085
aI3974996
aI3983677
aI4022862
aI4184195
aI4894008
aI5078945
aI5178451
aI5213732
aI5492664
asaa(lp1623
I5697696
a(dp1624
V_id
p1625
I5697696
sVrawcites
p1626
(lp1627
I2515747
aI2605387
aI2800573
aI2924731
aI2966602
aI2990494
aI3309565
aI3917971
aI3965345
aI4071799
aI4905042
aI4906891
aI4949007
aI4965484
aI5161884
aI5174646
aI5245246
asaa(lp1628
I5697701
a(dp1629
V_id
p1630
I5697701
sVrawcites
p1631
(lp1632
I455189
aI1774257
aI1898221
aI2520685
aI2976792
aI3154294
aI3181841
aI3212499
aI3235202
aI3430926
aI3679184
aI3861061
aI4373029
aI4523855
aI4561346
aI4747693
aI4750845
aI4895453
aI4943164
aI5167928
aI5511879
aI5520884
aI5558437
aI5593609
asaa(lp1633
I5697702
a(dp1634
V_id
p1635
I5697702
sVrawcites
p1636
(lp1637
I3753554
aI3840136
aI4022258
aI4045004
aI4081006
aI4103358
aI4168018
aI4214676
aI4312595
aI4699188
aI4941131
aI5151731
aI5156813
aI5184164
aI5331364
asaa(lp1638
I5697703
a(dp1639
V_id
p1640
I5697703
sVrawcites
p1641
(lp1642
I321031
aI408818
aI409533
aI425693
aI627968
aI796685
aI957248
aI2428492
aI2603461
aI2757910
aI2802649
aI2965363
aI3118653
aI5160198
aI5496109
asaa(lp1643
I5697704
a(dp1644
V_id
p1645
I5697704
sVrawcites
p1646
(lp1647
I44785
aI2283008
aI3778032
aI3933086
aI4288314
asaa(lp1648
I5697705
a(dp1649
V_id
p1650
I5697705
sVrawcites
p1651
(lp1652
I4175418
aI4316175
aI4352290
aI4722612
aI4760371
aI4870252
asaa(lp1653
I5697707
a(dp1654
V_id
p1655
I5697707
sVrawcites
p1656
(lp1657
I1860244
aI2083860
aI2189431
aI2654527
aI2867372
aI3349991
aI3456866
aI4127155
aI4542826
aI4708248
aI4762514
aI4819793
aI4863287
aI4869599
aI4946094
aI4991980
aI4993845
aI5020921
aI5181612
aI5354131
aI5464150
asaa(lp1658
I5697710
a(dp1659
V_id
p1660
I5697710
sVrawcites
p1661
(lp1662
I4699526
aI4792243
aI5000587
aI5242229
aI5370404
aI5454647
asaa(lp1663
I5697711
a(dp1664
V_id
p1665
I5697711
sVrawcites
p1666
(lp1667
I4526485
aI5333957
aI5383728
asaa(lp1668
I5697713
a(dp1669
V_id
p1670
I5697713
sVrawcites
p1671
(lp1672
I4342040
aI4818126
aI5372440
asaa(lp1673
I5697716
a(dp1674
V_id
p1675
I5697716
sVrawcites
p1676
(lp1677
I4594013
aI4679953
aI4798374
aI5035413
aI5178378
aI5211690
aI5480247
aI5531531
asaa(lp1678
I5697717
a(dp1679
V_id
p1680
I5697717
sVrawcites
p1681
(lp1682
I4772142
aI4825250
aI4990005
aI5089690
aI5182583
aI5218353
aI5381161
aI5383140
aI5449238
aI5501534
asaa(lp1683
I5697719
a(dp1684
V_id
p1685
I5697719
sVrawcites
p1686
(lp1687
I2101132
aI2811732
aI3056998
aI3109192
aI3352623
aI5123764
asaa(lp1688
I5697720
a(dp1689
V_id
p1690
I5697720
sVrawcites
p1691
(lp1692
I2703898
aI3084374
aI3372424
aI3558022
aI3861810
aI3908675
aI4470425
asaa(lp1693
I5697721
a(dp1694
V_id
p1695
I5697721
sVrawcites
p1696
(lp1697
I1005423
aI2170260
aI2176314
aI2202097
aI2234401
aI2242185
aI2285234
aI2299061
aI2363848
aI2407656
aI2489706
aI2491528
aI2602542
aI2747577
aI2891552
aI2935986
aI3433688
aI4120517
aI4511274
aI4577889
aI4941804
aI5524997
asaa(lp1698
I5697724
a(dp1699
V_id
p1700
I5697724
sVrawcites
p1701
(lp1702
I1621076
aI1717295
aI4005904
aI4407148
aI4516418
aI4523443
asaa(lp1703
I5697725
a(dp1704
V_id
p1705
I5697725
sVrawcites
p1706
(lp1707
I2666238
aI2704868
aI4570407
aI4730971
aI5150982
aI5403110
aI5410854
aI5488810
asaa(lp1708
I5697726
a(dp1709
V_id
p1710
I5697726
sVrawcites
p1711
(lp1712
I1660029
aI3212046
aI5158388
aI5275088
aI5469940
asaa(lp1713
I5697727
a(dp1714
V_id
p1715
I5697727
sVrawcites
p1716
(lp1717
I1510445
aI2729495
aI2898797
aI3065011
aI4671718
aI4850774
aI5620225
asaa(lp1718
I5697728
a(dp1719
V_id
p1720
I5697728
sVrawcites
p1721
(lp1722
I2181703
aI3262240
aI3276750
aI4954009
aI4989689
aI5145278
asaa(lp1723
I5697729
a(dp1724
V_id
p1725
I5697729
sVrawcites
p1726
(lp1727
I911256
aI922892
aI953858
aI1001041
aI1016081
aI1071577
aI1073150
aI1102422
aI1131327
aI1152618
aI1163189
aI1177850
aI1191431
aI1191432
aI1191497
aI1287290
aI1384712
aI1388492
aI1400399
aI1417377
aI1542900
aI1602713
aI1610123
aI1683365
aI1693190
aI1717364
aI1721831
aI1892830
aI1898871
aI1926595
aI1959171
aI1962881
aI1988360
aI2009132
aI2051172
aI2109287
aI2113713
aI2114499
aI2535275
aI2682211
aI2697389
aI2817274
aI3217619
aI3408778
aI3426659
aI3568746
aI3773428
aI3858998
aI3920347
aI3921494
aI3926533
aI3930739
aI3945746
aI3969847
aI3973856
aI3977124
aI4000953
aI4015373
aI4029425
aI4030851
aI4038789
aI4061434
aI4067659
aI4075796
aI4089139
aI4097228
aI4123184
aI4145151
aI4187647
aI4188151
aI4197031
aI4203686
aI4273467
aI4281944
aI4416400
aI4440407
aI4582449
aI4582450
aI4637752
aI4747739
aI4763449
aI4834574
aI4867600
aI4872780
aI4927290
aI4963053
aI4966489
aI4969770
aI4969771
aI5021261
aI5039248
aI5051022
aI5115622
aI5143478
aI5150984
aI5165819
aI5184912
asaa(lp1728
I5697730
a(dp1729
V_id
p1730
I5697730
sVrawcites
p1731
(lp1732
I1747125
aI3250188
aI3279334
aI3722378
aI3732791
aI3839518
aI3903706
aI3909143
aI3910710
aI3986783
aI4181448
aI4909662
aI5007764
asaa(lp1733
I5697731
a(dp1734
V_id
p1735
I5697731
sVrawcites
p1736
(lp1737
I1401149
aI1953890
aI2794274
aI2839975
aI3091999
aI3424251
aI3479755
aI4200408
aI4723609
aI5073063
aI5097911
aI5378079
aI5484229
aI5529434
aI5531036
asaa(lp1738
I5697732
a(dp1739
V_id
p1740
I5697732
sVrawcites
p1741
(lp1742
I4102142
aI4478586
aI4604961
aI4647076
aI4925219
aI5143483
asaa(lp1743
I5697733
a(dp1744
V_id
p1745
I5697733
sVrawcites
p1746
(lp1747
I2389709
aI2528386
aI3142901
aI3286536
aI3507162
aI3513713
aI3584515
aI3612188
aI3800889
aI3807244
aI3810394
aI3871617
aI3964322
aI3968700
aI3998107
aI4095460
aI4152953
aI4184787
aI4238968
aI4241615
aI4318446
aI4408740
aI4421180
aI4570616
aI4579011
aI4631971
aI4662459
aI4712439
aI4788882
aI5042313
aI5282699
aI5328299
aI5388470
asaa(lp1748
I5697734
a(dp1749
V_id
p1750
I5697734
sVrawcites
p1751
(lp1752
I2421666
aI3198857
aI3336760
aI3453832
aI4100750
aI4623025
asaa(lp1753
I5697735
a(dp1754
V_id
p1755
I5697735
sVrawcites
p1756
(lp1757
I4011728
aI4050254
aI4196161
aI4251196
aI4324508
aI4341491
aI4351507
aI4372091
aI4374798
aI4474400
aI4530622
aI4684294
aI4685838
aI4707962
aI4728227
aI4824293
aI4914887
aI4929125
aI5131791
aI5190413
aI5259704
aI5320455
aI5378088
aI5505563
asaa(lp1758
I5697736
a(dp1759
V_id
p1760
I5697736
sVrawcites
p1761
(lp1762
I1173879
aI1229152
aI1247750
aI1489428
aI1847043
aI2159685
aI3344609
aI3722222
aI3802205
aI3957098
aI4152875
aI4165197
aI4375928
aI4440527
aI4607985
aI4643618
aI4911585
aI4914876
aI4940364
aI5087150
aI5158395
aI5178493
asaa(lp1763
I5697738
a(dp1764
V_id
p1765
I5697738
sVrawcites
p1766
(lp1767
I85107
aI606319
aI1004902
aI1483082
aI1595588
aI1738032
aI2091128
aI2159842
aI2206292
aI2310675
aI2326106
aI2332295
aI2335791
aI2403651
aI2543206
aI2627292
aI2645138
aI2681673
aI2692627
aI2697951
aI2748460
aI2765760
aI2782824
aI2794468
aI2883888
aI2962066
aI3292412
aI3354690
aI3381515
aI3504575
aI3824026
aI3920350
aI3997279
aI4012970
aI4050841
aI4286904
aI4620822
aI4625593
aI4682917
aI4753558
aI4759667
aI4836006
aI4838062
aI4950111
aI5056967
aI5061127
aI5099933
aI5145018
aI5149234
aI5184689
aI5193951
aI5221166
aI5286143
aI5291806
aI5299441
aI5452970
asaa(lp1768
I5697740
a(dp1769
V_id
p1770
I5697740
sVrawcites
p1771
(lp1772
I4626146
aI4723877
aI4726268
aI4736659
aI4747735
aI4932295
aI4981057
aI5011346
aI5173017
aI5261302
aI5279194
aI5324145
aI5427481
aI5529445
asaa(lp1773
I5697741
a(dp1774
V_id
p1775
I5697741
sVrawcites
p1776
(lp1777
I2908529
aI3375557
aI3545200
aI3820817
aI4176874
aI4238895
aI4239275
aI4241575
aI4247966
aI5028183
aI5133633
aI5251947
aI5309706
asaa(lp1778
I5697743
a(dp1779
V_id
p1780
I5697743
sVrawcites
p1781
(lp1782
I1677269
aI3343443
aI3812757
aI4109691
aI4171662
aI4225165
aI4504180
aI4800787
aI4809569
aI4948312
aI5269208
asaa(lp1783
I5697744
a(dp1784
V_id
p1785
I5697744
sVrawcites
p1786
(lp1787
I3278356
aI3403718
aI3661661
aI3819437
aI4169751
aI4211923
aI4230757
aI4293359
aI4326902
aI4368826
aI4564932
aI4618516
aI4626308
aI4767492
aI4834819
aI4842462
aI4906313
aI4927183
aI4931114
aI4938314
aI4941788
aI5040357
aI5269917
aI5316603
aI5401342
aI5403415
aI5435863
asaa(lp1788
I5697745
a(dp1789
V_id
p1790
I5697745
sVrawcites
p1791
(lp1792
I972140
aI1401757
aI2775917
aI2799202
aI2878905
aI3411816
aI3746068
aI3756635
aI4280391
aI4400123
aI4438850
aI4514125
aI4536524
aI4555206
aI4681477
aI4693652
aI4756654
aI4826380
aI4907929
aI4915289
aI5129770
aI5308922
aI5419666
asaa(lp1793
I5697746
a(dp1794
V_id
p1795
I5697746
sVrawcites
p1796
(lp1797
I446871
aI3150890
aI4342530
aI4636125
aI4848405
aI5074729
aI5518351
asaa(lp1798
I5697750
a(dp1799
V_id
p1800
I5697750
sVrawcites
p1801
(lp1802
I4260312
aI4616683
aI4995430
aI5044871
aI5056875
aI5139459
aI5169272
aI5433574
asaa(lp1803
I5697751
a(dp1804
V_id
p1805
I5697751
sVrawcites
p1806
(lp1807
I4449885
aI4520421
aI4565601
aI4743570
aI4892451
aI4911597
aI4962441
aI4999507
aI5007981
aI5113992
aI5258047
aI5315473
asaa(lp1808
I5697752
a(dp1809
V_id
p1810
I5697752
sVrawcites
p1811
(lp1812
I3774548
aI4149623
aI4332012
aI4781285
aI4848533
aI4905986
aI4991707
aI5011068
aI5067606
aI5141093
aI5427300
asaa(lp1813
I5697753
a(dp1814
V_id
p1815
I5697753
sVrawcites
p1816
(lp1817
I1518278
aI2360146
aI2673627
aI3030107
aI3651963
aI3705410
aI3717263
aI3779404
aI3819068
aI3885682
aI3913757
aI3931897
aI4093084
aI4103789
aI4279555
aI4281955
aI4355712
aI4692876
aI4729467
aI4813526
aI4828102
aI5007521
aI5009560
aI5015145
aI5050090
aI5052882
aI5088873
aI5175692
aI5203671
aI5222857
aI5325953
aI5372473
aI5380139
aI5391038
aI5391046
aI5403142
asaa(lp1818
I5697754
a(dp1819
V_id
p1820
I5697754
sVrawcites
p1821
(lp1822
I3610058
aI3790001
aI4068770
aI4510637
aI4911033
aI4972539
aI5312148
aI5443353
asaa(lp1823
I5697755
a(dp1824
V_id
p1825
I5697755
sVrawcites
p1826
(lp1827
I816422
aI1795406
aI2349352
aI2806618
aI2808017
aI2835220
aI2986294
aI3011275
aI3017046
aI3141563
aI3251493
aI3312361
aI3542227
aI3678885
aI3796335
aI3865265
aI3883021
aI4391563
aI4418636
aI5131801
asaa(lp1828
I5697756
a(dp1829
V_id
p1830
I5697756
sVrawcites
p1831
(lp1832
I1416000
aI1702971
aI2771251
aI3743198
aI3912189
aI4022393
aI4121783
aI4589811
aI4856960
aI4895315
aI5060878
aI5246180
asaa(lp1833
I5697758
a(dp1834
V_id
p1835
I5697758
sVrawcites
p1836
(lp1837
I3373882
aI3521762
aI3549023
aI3596777
aI3788495
aI3942651
aI4604018
aI5478194
asaa(lp1838
I5697759
a(dp1839
V_id
p1840
I5697759
sVrawcites
p1841
(lp1842
I4597708
aI4636128
aI4643629
aI4768640
aI4776744
aI4786816
aI4790709
aI4803373
aI4859137
aI4875825
aI4895486
aI5003188
aI5110248
aI5181819
aI5186594
aI5219464
aI5382806
aI5443348
aI5468112
asaa(lp1843
I5697761
a(dp1844
V_id
p1845
I5697761
sVrawcites
p1846
(lp1847
I301288
aI2242408
aI3884458
aI3907279
aI4083550
aI4348101
aI4376529
aI4414579
aI4437660
aI4470356
aI4501419
aI4925171
aI4970504
aI5014049
aI5021776
aI5098074
aI5295181
aI5308058
aI5328170
aI5342034
aI5358238
aI5382012
asaa(lp1848
I5697762
a(dp1849
V_id
p1850
I5697762
sVrawcites
p1851
(lp1852
I3126657
aI3661384
aI3876083
aI4506874
aI4649840
asaa(lp1853
I5697763
a(dp1854
V_id
p1855
I5697763
sVrawcites
p1856
(lp1857
I3506376
aI3813850
aI4171188
aI4180986
aI4475876
asaa(lp1858
I5697765
a(dp1859
V_id
p1860
I5697765
sVrawcites
p1861
(lp1862
I2893519
aI3068805
aI3155010
aI3796136
aI3913454
aI3946837
aI3956972
aI4700613
aI4724742
aI5114324
aI5115890
aI5333705
asaa(lp1863
I5697766
a(dp1864
V_id
p1865
I5697766
sVrawcites
p1866
(lp1867
I5207564
aI5304044
aI5577898
asaa(lp1868
I5697767
a(dp1869
V_id
p1870
I5697767
sVrawcites
p1871
(lp1872
I2175997
aI3741676
aI3784324
aI3976390
aI4067665
aI4155684
aI4255095
aI4260339
aI4646207
aI4865529
asaa(lp1873
I5697770
a(dp1874
V_id
p1875
I5697770
sVrawcites
p1876
(lp1877
I2529204
aI2980032
aI3058140
aI4181477
aI4646781
aI4712583
asaa(lp1878
I5697771
a(dp1879
V_id
p1880
I5697771
sVrawcites
p1881
(lp1882
I4204815
aI4268230
asaa(lp1883
I5697772
a(dp1884
V_id
p1885
I5697772
sVrawcites
p1886
(lp1887
I2511878
aI2931308
aI4543048
asaa(lp1888
I5697773
a(dp1889
V_id
p1890
I5697773
sVrawcites
p1891
(lp1892
I263814
aI969378
aI1343115
aI1601397
aI1999488
aI2017881
aI2025779
aI2033662
aI2128157
aI2135933
aI2203974
aI2226145
aI2300828
aI2315016
aI2328270
aI2463118
aI2586968
aI2684035
aI2789352
aI2836877
aI2933046
aI2937444
aI3043274
aI3054355
aI3163934
aI3192922
aI3229369
aI3309965
aI3376825
aI3421224
aI3477793
aI3510229
aI3719440
aI3727313
aI3740853
aI3855704
aI3856432
aI3877574
aI3942392
aI3955284
aI3987550
aI4040311
aI4053983
aI4171571
aI4182041
aI4185386
aI4248589
aI4259071
aI4266933
aI4365956
aI4392779
aI4465443
aI4540337
aI4693871
aI4747277
aI4795343
aI4842516
aI4846638
aI4863344
aI4929180
aI4941828
aI5020994
aI5028233
aI5040978
aI5062796
aI5094615
aI5120220
aI5156547
aI5163825
asaa(lp1893
I5697776
a(dp1894
V_id
p1895
I5697776
sVrawcites
p1896
(lp1897
I2947526
aI3865098
aI4239481
aI4416620
asaa(lp1898
I5697777
a(dp1899
V_id
p1900
I5697777
sVrawcites
p1901
(lp1902
I5154604
aI5267853
asaa(lp1903
I5697778
a(dp1904
V_id
p1905
I5697778
sVrawcites
p1906
(lp1907
I3140743
aI4275569
aI4310302
aI4502671
aI4846675
aI5295822
asaa(lp1908
I5697780
a(dp1909
V_id
p1910
I5697780
sVrawcites
p1911
(lp1912
I3361252
aI3709866
aI3745653
aI3854581
aI4204325
aI4701129
aI4801528
aI4859184
aI4978007
aI5172809
aI5172810
aI5183403
aI5279800
aI5348154
aI5368161
aI5484283
aI5542844
asaa(lp1913
I5697781
a(dp1914
V_id
p1915
I5697781
sVrawcites
p1916
(lp1917
I3997970
aI4472138
aI4472139
aI4708646
aI4969822
aI4975052
aI5011404
aI5022855
aI5057012
aI5064370
aI5092768
aI5288229
aI5299935
aI5352116
asaa(lp1918
I5697535
a(dp1919
V_id
p1920
I5697535
sVrawcites
p1921
(lp1922
I2750074
aI3354918
aI3704722
aI4785966
asaa(lp1923
I5697537
a(dp1924
V_id
p1925
I5697537
sVrawcites
p1926
(lp1927
I2651441
aI2926403
aI3434638
aI3696978
aI3963156
aI4121743
aI4607606
aI4684047
aI4830244
aI4883290
aI4896806
aI4977860
aI5050786
aI5232136
aI5239976
aI5388741
aI5423530
aI5477997
aI5494202
aI5511707
asaa(lp1928
I5697538
a(dp1929
V_id
p1930
I5697538
sVrawcites
p1931
(lp1932
I4299344
aI4534063
aI4770328
aI5097997
aI5261583
aI5452829
asaa(lp1933
I5697539
a(dp1934
V_id
p1935
I5697539
sVrawcites
p1936
(lp1937
I3317734
aI3949856
aI4276547
aI4639152
aI5335837
asaa(lp1938
I5697540
a(dp1939
V_id
p1940
I5697540
sVrawcites
p1941
(lp1942
I3186047
aI3408699
aI3588961
aI3713571
aI3726458
aI3875618
aI4124156
aI4493447
aI4597516
aI4611705
aI4671722
aI5121524
asaa(lp1943
I5697545
a(dp1944
V_id
p1945
I5697545
sVrawcites
p1946
(lp1947
I3002871
aI3184841
aI3581969
aI3863826
asaa(lp1948
I5697546
a(dp1949
V_id
p1950
I5697546
sVrawcites
p1951
(lp1952
I1805116
aI1891538
aI2228550
aI2248959
aI2286271
aI2294030
aI4172493
aI4938284
aI5085269
aI5148863
asaa(lp1953
I5697548
a(dp1954
V_id
p1955
I5697548
sVrawcites
p1956
(lp1957
I1657515
aI1664308
aI1706804
aI2347422
aI2372312
aI2967655
aI3086689
aI4081124
aI4341338
aI4417686
aI4441649
aI4607750
aI4614298
aI4676429
aI4702408
aI4817803
aI4948033
aI5147271
aI5419486
aI5485951
asaa(lp1958
I5697549
a(dp1959
V_id
p1960
I5697549
sVrawcites
p1961
(lp1962
I1983004
aI2054596
aI2180808
aI2185392
aI3071882
aI3099381
aI3220634
aI3804323
aI4232816
aI4252264
aI4453664
aI4729477
aI4872555
aI5127743
aI5341923
asaa(lp1963
I5697551
a(dp1964
V_id
p1965
I5697551
sVrawcites
p1966
(lp1967
I4049044
aI4230267
aI4335848
aI4364512
aI4437771
aI4483479
aI4834284
aI5056712
asaa(lp1968
I5697556
a(dp1969
V_id
p1970
I5697556
sVrawcites
p1971
(lp1972
I4519527
aI4678123
aI4826052
aI5114052
aI5522547
asaa(lp1973
I5697558
a(dp1974
V_id
p1975
I5697558
sVrawcites
p1976
(lp1977
I4806357
aI4808430
aI5080925
aI5107787
aI5254358
aI5421882
aI5509963
aI5512101
asaa(lp1978
I5697565
a(dp1979
V_id
p1980
I5697565
sVrawcites
p1981
(lp1982
I3510078
aI3777995
aI3991950
aI4102506
aI4140286
aI5409173
asaa(lp1983
I5179466
a(dp1984
V_id
p1985
I5179466
sVrawcites
p1986
(lp1987
I4260227
aI4561738
asaa(lp1988
I5179476
a(dp1989
V_id
p1990
I5179476
sVrawcites
p1991
(lp1992
I4200889
aI4849826
asaa(lp1993
I5179518
a(dp1994
V_id
p1995
I5179518
sVrawcites
p1996
(lp1997
saa(lp1998
I5179532
a(dp1999
V_id
p2000
I5179532
sVrawcites
p2001
(lp2002
I4583200
aI4731752
asaa(lp2003
I5179593
a(dp2004
V_id
p2005
I5179593
sVrawcites
p2006
(lp2007
saa(lp2008
I4551824
a(dp2009
V_id
p2010
I4551824
sVrawcites
p2011
(lp2012
I3510825
aI3916371
asaa(lp2013
I4551871
a(dp2014
V_id
p2015
I4551871
sVrawcites
p2016
(lp2017
I2803832
aI2931047
aI3021528
aI3201804
aI3212104
asaa(lp2018
I4551891
a(dp2019
V_id
p2020
I4551891
sVrawcites
p2021
(lp2022
I4424612
asaa(lp2023
I4559958
a(dp2024
V_id
p2025
I4559958
sVrawcites
p2026
(lp2027
saa(lp2028
I4559969
a(dp2029
V_id
p2030
I4559969
sVrawcites
p2031
(lp2032
saa(lp2033
I4559997
a(dp2034
V_id
p2035
I4559997
sVrawcites
p2036
(lp2037
I2066431
aI3884135
asaa(lp2038
I4560035
a(dp2039
V_id
p2040
I4560035
sVrawcites
p2041
(lp2042
I2942695
aI4022300
aI4036330
aI4406352
asaa(lp2043
I4560036
a(dp2044
V_id
p2045
I4560036
sVrawcites
p2046
(lp2047
I3917032
aI4129200
aI4174769
aI4274514
aI4310075
asaa(lp2048
I4551934
a(dp2049
V_id
p2050
I4551934
sVrawcites
p2051
(lp2052
I1890182
aI3374794
aI3716145
asaa(lp2053
I4552014
a(dp2054
V_id
p2055
I4552014
sVrawcites
p2056
(lp2057
I3254530
asaa(lp2058
I4552084
a(dp2059
V_id
p2060
I4552084
sVrawcites
p2061
(lp2062
I2834520
aI3770013
aI4149480
asaa(lp2063
I4552186
a(dp2064
V_id
p2065
I4552186
sVrawcites
p2066
(lp2067
I2737209
aI3753451
aI3934620
asaa(lp2068
I3931376
a(dp2069
V_id
p2070
I3931376
sVrawcites
p2071
(lp2072
I3705112
asaa(lp2073
I3931394
a(dp2074
V_id
p2075
I3931394
sVrawcites
p2076
(lp2077
I1700982
aI3099535
asaa(lp2078
I3931408
a(dp2079
V_id
p2080
I3931408
sVrawcites
p2081
(lp2082
I3202573
asaa(lp2083
I3931410
a(dp2084
V_id
p2085
I3931410
sVrawcites
p2086
(lp2087
I3259649
asaa(lp2088
I3931427
a(dp2089
V_id
p2090
I3931427
sVrawcites
p2091
(lp2092
I3650800
asaa(lp2093
I3931432
a(dp2094
V_id
p2095
I3931432
sVrawcites
p2096
(lp2097
saa(lp2098
I3931530
a(dp2099
V_id
p2100
I3931530
sVrawcites
p2101
(lp2102
I2598490
aI3753044
asaa(lp2103
I3931590
a(dp2104
V_id
p2105
I3931590
sVrawcites
p2106
(lp2107
saa(lp2108
I3931605
a(dp2109
V_id
p2110
I3931605
sVrawcites
p2111
(lp2112
I2154685
asaa(lp2113
I3931628
a(dp2114
V_id
p2115
I3931628
sVrawcites
p2116
(lp2117
I3295424
aI3450016
aI3533348
aI3693518
asaa(lp2118
I3931701
a(dp2119
V_id
p2120
I3931701
sVrawcites
p2121
(lp2122
I2847806
aI3812642
asaa(lp2123
I3931709
a(dp2124
V_id
p2125
I3931709
sVrawcites
p2126
(lp2127
I3397539
asaa(lp2128
I3931724
a(dp2129
V_id
p2130
I3931724
sVrawcites
p2131
(lp2132
I2480381
aI2780119
aI3030835
asaa(lp2133
I3931730
a(dp2134
V_id
p2135
I3931730
sVrawcites
p2136
(lp2137
I2869364
aI2976485
asaa(lp2138
I3931733
a(dp2139
V_id
p2140
I3931733
sVrawcites
p2141
(lp2142
I2806959
aI3814695
asaa(lp2143
I3931739
a(dp2144
V_id
p2145
I3931739
sVrawcites
p2146
(lp2147
I3134262
asaa(lp2148
I3931750
a(dp2149
V_id
p2150
I3931750
sVrawcites
p2151
(lp2152
saa(lp2153
I3931770
a(dp2154
V_id
p2155
I3931770
sVrawcites
p2156
(lp2157
I1274063
aI1350657
aI2264637
aI2672103
asaa(lp2158
I3931785
a(dp2159
V_id
p2160
I3931785
sVrawcites
p2161
(lp2162
I2625902
asaa(lp2163
I3931835
a(dp2164
V_id
p2165
I3931835
sVrawcites
p2166
(lp2167
I2150439
aI2170612
aI3677300
asaa(lp2168
I3931840
a(dp2169
V_id
p2170
I3931840
sVrawcites
p2171
(lp2172
I3786842
asaa(lp2173
I3931845
a(dp2174
V_id
p2175
I3931845
sVrawcites
p2176
(lp2177
I1480371
asaa(lp2178
I5809874
a(dp2179
V_id
p2180
I5809874
sVrawcites
p2181
(lp2182
I45521
aI2127555
aI5269232
asaa(lp2183
I5809924
a(dp2184
V_id
p2185
I5809924
sVrawcites
p2186
(lp2187
I3922996
aI4916969
aI5591055
aI5632657
aI5660132
asaa(lp2188
I5809927
a(dp2189
V_id
p2190
I5809927
sVrawcites
p2191
(lp2192
saa(lp2193
I5809937
a(dp2194
V_id
p2195
I5809937
sVrawcites
p2196
(lp2197
I3509854
asaa(lp2198
I5697542
a(dp2199
V_id
p2200
I5697542
sVrawcites
p2201
(lp2202
I3269631
aI4169476
aI4198982
aI4505272
aI4784137
aI5040715
aI5071430
aI5170925
aI5307976
aI5425745
asaa(lp2203
I5697543
a(dp2204
V_id
p2205
I5697543
sVrawcites
p2206
(lp2207
I4527724
aI4566620
aI4573622
aI4728020
aI5071052
aI5137198
aI5307976
aI5318221
aI5452836
aI5465895
aI5579978
asaa(lp2208
I5697547
a(dp2209
V_id
p2210
I5697547
sVrawcites
p2211
(lp2212
I3606138
aI4944449
aI5174491
aI5288015
asaa(lp2213
I5697550
a(dp2214
V_id
p2215
I5697550
sVrawcites
p2216
(lp2217
I5542559
aI5547124
asaa(lp2218
I5697552
a(dp2219
V_id
p2220
I5697552
sVrawcites
p2221
(lp2222
I2488580
aI3323723
aI3753194
aI3927829
aI4270693
aI4755786
aI4773587
aI5161606
asaa(lp2223
I5697554
a(dp2224
V_id
p2225
I5697554
sVrawcites
p2226
(lp2227
I4022166
aI4544096
aI5452858
aI5495957
asaa(lp2228
I5697560
a(dp2229
V_id
p2230
I5697560
sVrawcites
p2231
(lp2232
I2417599
aI2509147
aI4068805
aI4682523
aI5340034
aI5373763
aI5447276
asaa(lp2233
I5697572
a(dp2234
V_id
p2235
I5697572
sVrawcites
p2236
(lp2237
I812150
aI2046364
aI3216117
aI3547371
aI4407460
aI4846090
aI4969610
aI5094396
aI5490805
asaa(lp2238
I5697582
a(dp2239
V_id
p2240
I5697582
sVrawcites
p2241
(lp2242
I4325124
aI4591116
aI4732354
aI4747567
aI4949922
aI5149022
asaa(lp2243
I5697595
a(dp2244
V_id
p2245
I5697595
sVrawcites
p2246
(lp2247
I2959886
aI3809354
aI3980267
aI4456286
asaa(lp2248
I5697604
a(dp2249
V_id
p2250
I5697604
sVrawcites
p2251
(lp2252
I5044622
aI5269505
asaa(lp2253
I5697606
a(dp2254
V_id
p2255
I5697606
sVrawcites
p2256
(lp2257
I3715115
aI5133593
aI5241907
aI5288067
asaa(lp2258
I5697608
a(dp2259
V_id
p2260
I5697608
sVrawcites
p2261
(lp2262
I4143755
aI4438917
aI4511242
aI4519700
aI4685664
aI4971304
aI5050857
aI5078384
aI5094442
aI5156391
aI5169140
aI5273274
aI5278624
aI5577719
asaa(lp2263
I5697614
a(dp2264
V_id
p2265
I5697614
sVrawcites
p2266
(lp2267
I5265882
aI5494295
asaa(lp2268
I5697615
a(dp2269
V_id
p2270
I5697615
sVrawcites
p2271
(lp2272
I1542819
aI3053537
aI4306725
aI5271623
aI5282631
aI5615886
asaa(lp2273
I5697616
a(dp2274
V_id
p2275
I5697616
sVrawcites
p2276
(lp2277
I712556
aI718917
aI5280916
aI5549301
asaa(lp2278
I5697628
a(dp2279
V_id
p2280
I5697628
sVrawcites
p2281
(lp2282
I2441997
aI2556121
aI2596055
aI2603499
aI3619005
aI3635526
aI3708182
aI4280731
aI4613994
aI4759562
aI4948156
aI5257799
aI5294027
asaa(lp2283
I5697630
a(dp2284
V_id
p2285
I5697630
sVrawcites
p2286
(lp2287
I3773356
aI3879062
aI4840392
aI4871185
aI4974866
aI5330196
aI5529330
aI5549316
asaa(lp2288
I5697631
a(dp2289
V_id
p2290
I5697631
sVrawcites
p2291
(lp2292
I2139699
aI3608919
aI3779570
aI3785668
aI3888497
aI3905613
aI3964758
aI3992037
aI4060256
aI4083129
aI4177584
aI4640026
aI4653203
aI5558355
asaa(lp2293
I5697633
a(dp2294
V_id
p2295
I5697633
sVrawcites
p2296
(lp2297
I4238261
aI4538831
aI4705292
aI4875703
aI4878688
aI4964651
aI5346241
aI5348334
aI5362091
aI5372377
aI5405162
asaa(lp2298
I5697634
a(dp2299
V_id
p2300
I5697634
sVrawcites
p2301
(lp2302
I5149131
aI5217246
aI5218546
aI5383679
aI5393087
aI5401053
asaa(lp2303
I5697638
a(dp2304
V_id
p2305
I5697638
sVrawcites
p2306
(lp2307
I3910597
aI4715617
aI5211421
aI5351977
asaa(lp2308
I5697639
a(dp2309
V_id
p2310
I5697639
sVrawcites
p2311
(lp2312
I5411289
aI5413378
aI5460405
aI5564743
aI5613702
aI5626359
asaa(lp2313
I5697641
a(dp2314
V_id
p2315
I5697641
sVrawcites
p2316
(lp2317
I3642303
aI4262931
aI4360223
aI5240283
aI5340151
aI5435594
aI5524924
aI5556128
aI5586782
asaa(lp2318
I5697649
a(dp2319
V_id
p2320
I5697649
sVrawcites
p2321
(lp2322
I4183989
aI4652015
aI4940966
aI4960651
aI5093184
aI5196681
aI5388862
aI5439755
aI5486022
aI5516153
asaa(lp2323
I5697650
a(dp2324
V_id
p2325
I5697650
sVrawcites
p2326
(lp2327
I4527745
aI4915305
aI5143298
asaa(lp2328
I5697651
a(dp2329
V_id
p2330
I5697651
sVrawcites
p2331
(lp2332
I3357723
aI3799586
aI3869151
aI3995896
aI4071269
aI4121843
aI4165107
aI4422220
aI4427220
aI4643463
aI4652025
aI5080405
aI5112088
aI5505498
asaa(lp2333
I5697652
a(dp2334
V_id
p2335
I5697652
sVrawcites
p2336
(lp2337
I373292
aI1966718
aI2084431
aI5425558
asaa(lp2338
I5697412
a(dp2339
V_id
p2340
I5697412
sVrawcites
p2341
(lp2342
I3468352
aI3910326
aI3911981
aI4909291
aI5109900
asaa(lp2343
I5697418
a(dp2344
V_id
p2345
I5697418
sVrawcites
p2346
(lp2347
I3686006
aI3688832
aI4685503
aI5067548
asaa(lp2348
I5697553
a(dp2349
V_id
p2350
I5697553
sVrawcites
p2351
(lp2352
I3013732
aI3024045
aI3028102
aI3029029
aI3474970
aI3946552
aI3972182
aI3979069
aI3980233
aI4139157
aI4168803
aI4365753
aI4595143
aI4613079
aI4616784
aI4754922
aI5067655
aI5105621
aI5251823
asaa(lp2353
I5697555
a(dp2354
V_id
p2355
I5697555
sVrawcites
p2356
(lp2357
I409978
aI940103
aI1601097
aI2126959
aI3176474
aI4303617
aI4780253
aI4978069
aI5154893
aI5246167
aI5281401
aI5382410
asaa(lp2358
I5697557
a(dp2359
V_id
p2360
I5697557
sVrawcites
p2361
(lp2362
I3762648
aI3801019
aI4081135
aI4561593
aI5294054
aI5316216
aI5356077
aI5398872
aI5476225
asaa(lp2363
I5697559
a(dp2364
V_id
p2365
I5697559
sVrawcites
p2366
(lp2367
I4361288
aI4405086
aI4450785
aI4605168
aI4723726
aI4776520
aI4838487
aI4844348
aI4866987
aI4878454
aI4887770
aI4936507
aI4943005
aI4947035
aI4987001
aI5078321
aI5100057
aI5153512
aI5204619
aI5346139
aI5397063
asaa(lp2368
I5697561
a(dp2369
V_id
p2370
I5697561
sVrawcites
p2371
(lp2372
I1724403
aI2643065
aI2645910
aI2700563
aI2952391
aI3135101
aI4168805
aI4228923
aI4706466
aI5061167
aI5131620
aI5190228
aI5211030
aI5397032
aI5445332
asaa(lp2373
I5697562
a(dp2374
V_id
p2375
I5697562
sVrawcites
p2376
(lp2377
I758302
aI1462096
aI1826157
aI2027840
aI2442492
aI2447399
aI2618438
aI3194288
aI3540534
aI3952811
aI4205799
aI4298170
aI4417627
aI4449673
aI4848682
aI5025995
aI5060875
asaa(lp2378
I5697563
a(dp2379
V_id
p2380
I5697563
sVrawcites
p2381
(lp2382
I1728976
aI2525023
aI2592481
aI2965320
aI3973735
aI3993256
aI4214716
aI4875630
aI5630556
asaa(lp2383
I5697564
a(dp2384
V_id
p2385
I5697564
sVrawcites
p2386
(lp2387
I842076
aI1753685
aI2095228
aI2189312
aI3086586
aI3904133
asaa(lp2388
I5697566
a(dp2389
V_id
p2390
I5697566
sVrawcites
p2391
(lp2392
I3036789
aI3044730
aI3088691
aI3858822
aI4470554
aI4529142
aI4634073
aI4645137
aI4676451
aI4749285
aI4760974
asaa(lp2393
I5697567
a(dp2394
V_id
p2395
I5697567
sVrawcites
p2396
(lp2397
I2890842
aI2973917
aI3166267
aI4412662
aI4856730
asaa(lp2398
I5697568
a(dp2399
V_id
p2400
I5697568
sVrawcites
p2401
(lp2402
I3911492
aI4642712
aI4652948
aI5188311
aI5262909
aI5299076
aI5333807
aI5335877
aI5548456
aI5605300
asaa(lp2403
I5697569
a(dp2404
V_id
p2405
I5697569
sVrawcites
p2406
(lp2407
I4526330
aI4560117
aI5418671
asaa(lp2408
I5697570
a(dp2409
V_id
p2410
I5697570
sVrawcites
p2411
(lp2412
I2357328
aI2455819
aI2574689
aI2620682
aI2912181
aI3005599
aI3044732
aI3097809
aI3313498
aI3412626
asaa(lp2413
I5697571
a(dp2414
V_id
p2415
I5697571
sVrawcites
p2416
(lp2417
I4158402
aI4444010
aI4508287
aI4685898
aI4692130
aI5246406
aI5334111
aI5443222
asaa(lp2418
I5697573
a(dp2419
V_id
p2420
I5697573
sVrawcites
p2421
(lp2422
I3203635
aI3223338
aI3785588
aI4025005
aI4030131
aI4377251
aI4399958
aI5505401
asaa(lp2423
I5697574
a(dp2424
V_id
p2425
I5697574
sVrawcites
p2426
(lp2427
I1662003
aI1982933
aI2179094
aI2425909
aI4783078
aI5133509
asaa(lp2428
I5697575
a(dp2429
V_id
p2430
I5697575
sVrawcites
p2431
(lp2432
I13671
aI964546
aI1085909
aI1402989
aI1409659
aI1716511
aI1742029
aI1807813
aI1812742
aI1874904
aI1908121
aI1949238
aI2033799
aI2086144
aI2094896
aI2212812
aI2389443
aI2601071
aI2622816
aI3197017
aI3327959
aI3831876
aI3920502
aI4077580
aI4084761
aI4098468
aI4173314
aI4278213
aI4564150
aI4715922
aI4729519
aI4729522
aI4763851
aI4792103
aI4821973
aI4951894
asaa(lp2433
I5697576
a(dp2434
V_id
p2435
I5697576
sVrawcites
p2436
(lp2437
I390084
aI419811
aI1217211
aI2905404
aI2928619
aI3032283
aI3729145
aI4013236
aI4113195
aI4383657
aI4662576
aI5065924
aI5314131
aI5370339
asaa(lp2438
I5697577
a(dp2439
V_id
p2440
I5697577
sVrawcites
p2441
(lp2442
I2440974
aI2561584
aI3729145
aI3786615
aI3895474
aI3947134
aI4004711
aI4089481
aI4421973
aI4495402
aI4508959
aI4694973
aI4700048
aI4721264
aI4827107
aI4857708
aI4865221
aI4890205
aI4943705
aI4947026
aI5006690
aI5050737
aI5143249
aI5210396
aI5231266
aI5310084
aI5311986
asaa(lp2443
I5697578
a(dp2444
V_id
p2445
I5697578
sVrawcites
p2446
(lp2447
I3698811
aI3856237
aI3876308
aI4100545
aI4256275
aI4476494
asaa(lp2448
I5697579
a(dp2449
V_id
p2450
I5697579
sVrawcites
p2451
(lp2452
I954215
aI1056791
aI3116037
aI3384328
aI3957228
aI3993269
aI4261534
aI5115998
asaa(lp2453
I5697580
a(dp2454
V_id
p2455
I5697580
sVrawcites
p2456
(lp2457
I2124003
aI2777138
aI3240450
aI3370813
aI4589612
aI4977630
aI5016570
aI5078343
aI5431129
asaa(lp2458
I5697581
a(dp2459
V_id
p2460
I5697581
sVrawcites
p2461
(lp2462
I3257089
aI3840988
aI4291852
aI4303213
aI4830340
asaa(lp2463
I5697583
a(dp2464
V_id
p2465
I5697583
sVrawcites
p2466
(lp2467
I3696758
aI4582280
aI4723737
aI5182570
aI5351919
aI5435505
asaa(lp2468
I5697584
a(dp2469
V_id
p2470
I5697584
sVrawcites
p2471
(lp2472
I2503786
aI2520445
aI3576563
aI4283716
aI4700278
aI4754272
asaa(lp2473
I5697585
a(dp2474
V_id
p2475
I5697585
sVrawcites
p2476
(lp2477
I4278071
aI4291855
aI4783029
aI4802646
aI4955574
aI5172879
aI5277387
asaa(lp2478
I5697586
a(dp2479
V_id
p2480
I5697586
sVrawcites
p2481
(lp2482
I842641
aI2683576
aI2890545
aI3304032
aI3868079
aI3970273
aI4262870
aI4653968
aI4801114
aI4915334
aI4949923
aI5169115
aI5482236
asaa(lp2483
I5697587
a(dp2484
V_id
p2485
I5697587
sVrawcites
p2486
(lp2487
I898755
aI1086541
aI1276905
aI2302737
aI2518538
aI2532244
aI3314635
aI4303109
aI4852843
aI4997156
aI5165646
aI5540409
asaa(lp2488
I5697588
a(dp2489
V_id
p2490
I5697588
sVrawcites
p2491
(lp2492
I1775577
aI4576372
aI4687167
aI4930368
aI5207791
aI5268675
aI5271590
aI5320318
aI5385901
aI5404182
aI5569895
aI5588625
asaa(lp2493
I5697589
a(dp2494
V_id
p2495
I5697589
sVrawcites
p2496
(lp2497
I3015177
aI3276800
aI3711973
aI4805331
aI4881707
aI5111606
aI5381908
asaa(lp2498
I5697590
a(dp2499
V_id
p2500
I5697590
sVrawcites
p2501
(lp2502
I2287667
aI3175243
aI3378879
aI3522621
aI4461443
aI4593824
aI4989815
aI5174536
aI5246052
aI5421059
asaa(lp2503
I5697591
a(dp2504
V_id
p2505
I5697591
sVrawcites
p2506
(lp2507
I1343767
aI1734577
aI1774775
aI1807501
aI2494881
aI2523785
aI3747166
aI4440519
aI5288047
asaa(lp2508
I5697592
a(dp2509
V_id
p2510
I5697592
sVrawcites
p2511
(lp2512
I1951656
aI2640671
aI2694813
aI3028604
aI3094892
aI3231200
aI3259350
aI3285568
aI4169308
aI4228552
aI4453346
aI5022103
aI5280690
asaa(lp2513
I5697593
a(dp2514
V_id
p2515
I5697593
sVrawcites
p2516
(lp2517
I4583707
aI5280870
aI5505417
aI5598999
asaa(lp2518
I5697594
a(dp2519
V_id
p2520
I5697594
sVrawcites
p2521
(lp2522
I1373619
aI1782057
aI2006887
aI4693443
aI4902078
aI4934648
aI4934853
aI4960257
aI5044593
aI5074512
aI5078358
aI5104088
aI5292099
aI5451025
asaa(lp2523
I5697596
a(dp2524
V_id
p2525
I5697596
sVrawcites
p2526
(lp2527
I2098553
aI2230775
aI3805884
aI4821507
aI4919169
aI5299601
asaa(lp2528
I5697597
a(dp2529
V_id
p2530
I5697597
sVrawcites
p2531
(lp2532
I336189
aI385998
aI434701
aI502397
aI559513
aI959988
aI1179132
aI1259559
aI1775207
aI2643856
aI2648521
aI3580543
aI3964729
aI4643396
aI4771988
aI5135200
aI5618030
asaa(lp2533
I5697598
a(dp2534
V_id
p2535
I5697598
sVrawcites
p2536
(lp2537
I1534992
aI1701314
aI4194725
aI4848733
aI5135201
aI5199688
asaa(lp2538
I5697599
a(dp2539
V_id
p2540
I5697599
sVrawcites
p2541
(lp2542
I415823
aI1781195
aI1781700
aI1845171
aI2883013
aI3944095
aI3964621
aI4084708
aI4594041
aI5281068
asaa(lp2543
I5697600
a(dp2544
V_id
p2545
I5697600
sVrawcites
p2546
(lp2547
I299770
aI598003
aI755413
aI1764207
aI1911483
aI3011598
aI4803812
aI4923165
aI5011107
aI5139235
asaa(lp2548
I5697601
a(dp2549
V_id
p2550
I5697601
sVrawcites
p2551
(lp2552
I1194666
aI1402621
aI1476628
aI1788546
aI1841196
aI2599010
aI2642905
aI3537337
aI4093202
aI4316605
aI4552345
aI4957257
aI5005813
aI5192060
aI5318391
aI5342031
asaa(lp2553
I5697602
a(dp2554
V_id
p2555
I5697602
sVrawcites
p2556
(lp2557
I1324981
aI1700503
aI1907747
aI2578021
aI3006499
aI3278071
aI5329971
asaa(lp2558
I5697603
a(dp2559
V_id
p2560
I5697603
sVrawcites
p2561
(lp2562
I5582399
asaa(lp2563
I5697605
a(dp2564
V_id
p2565
I5697605
sVrawcites
p2566
(lp2567
I2631038
aI2836418
aI3966195
aI5125639
aI5131647
aI5377588
asaa(lp2568
I5697607
a(dp2569
V_id
p2570
I5697607
sVrawcites
p2571
(lp2572
I4072260
aI4953897
aI5199757
aI5542657
asaa(lp2573
I5697609
a(dp2574
V_id
p2575
I5697609
sVrawcites
p2576
(lp2577
I4685664
aI4836119
aI5219159
asaa(lp2578
I5697610
a(dp2579
V_id
p2580
I5697610
sVrawcites
p2581
(lp2582
I3186708
aI3955812
aI4798646
asaa(lp2583
I5697611
a(dp2584
V_id
p2585
I5697611
sVrawcites
p2586
(lp2587
I473265
aI810299
aI941194
aI1543318
aI1563983
aI1572090
aI1652071
aI1663752
aI1879511
aI2043166
aI2141580
aI2660434
aI2736559
aI2926915
aI3268227
aI3275324
aI3275325
aI3429574
aI3584877
aI3807736
aI3843129
aI3851879
aI3947030
aI4120501
aI4212465
aI4216961
aI4227690
aI4240635
aI4260153
aI4348028
aI4397463
aI4569522
aI4602789
aI4662846
aI4743024
aI4772024
aI4837728
aI4892311
aI4948133
aI4964638
aI5002279
aI5014988
aI5014991
aI5016879
aI5016880
aI5024441
aI5042810
aI5042813
aI5048833
aI5096192
aI5120060
aI5137278
aI5149093
aI5181722
aI5249800
aI5275402
aI5280909
aI5286023
aI5292127
aI5397134
aI5511794
asaa(lp2588
I5697612
a(dp2589
V_id
p2590
I5697612
sVrawcites
p2591
(lp2592
I3826883
aI3877701
aI5044635
aI5158291
aI5415403
aI5417423
asaa(lp2593
I5697613
a(dp2594
V_id
p2595
I5697613
sVrawcites
p2596
(lp2597
I454603
aI905586
aI1308201
aI1678527
aI1763205
aI2170373
aI2722211
aI3051487
aI3091465
aI3190653
aI3469846
aI3598411
aI4333651
aI4416247
aI4488723
asaa(lp2598
I5697617
a(dp2599
V_id
p2600
I5697617
sVrawcites
p2601
(lp2602
I768397
aI3120958
aI3572712
asaa(lp2603
I5697618
a(dp2604
V_id
p2605
I5697618
sVrawcites
p2606
(lp2607
I1293137
aI1460111
aI1608127
aI2016767
aI2232060
aI2699553
aI3350799
aI4156539
aI4244582
aI4352253
aI4733864
aI4956931
aI5249808
asaa(lp2608
I5697619
a(dp2609
V_id
p2610
I5697619
sVrawcites
p2611
(lp2612
I2650074
aI2670183
aI3166119
aI4593750
aI4673026
aI4997028
aI5005634
asaa(lp2613
I5697620
a(dp2614
V_id
p2615
I5697620
sVrawcites
p2616
(lp2617
I2483827
aI2587810
aI2962314
aI3559733
aI3687465
aI4310163
aI4379558
asaa(lp2618
I5697621
a(dp2619
V_id
p2620
I5697621
sVrawcites
p2621
(lp2622
I922639
aI2108868
aI2511968
aI2740636
aI3055672
aI5217248
asaa(lp2623
I5697622
a(dp2624
V_id
p2625
I5697622
sVrawcites
p2626
(lp2627
I31994
aI103346
aI243323
aI287820
aI657790
aI2048916
aI2058164
aI2166767
aI3414280
aI5069462
aI5192088
aI5251920
aI5398949
aI5413380
aI5549309
asaa(lp2628
I5697623
a(dp2629
V_id
p2630
I5697623
sVrawcites
p2631
(lp2632
I1764971
aI2657408
aI2955835
aI3190672
aI3336042
aI3485314
aI3980319
aI4010507
aI4175762
aI4828282
aI4848504
aI4878339
aI4982974
aI4989351
aI4998948
aI5004251
aI5117944
aI5118123
aI5388850
aI5413364
asaa(lp2633
I5697624
a(dp2634
V_id
p2635
I5697624
sVrawcites
p2636
(lp2637
I4523773
aI4830385
aI5464104
asaa(lp2638
I5697625
a(dp2639
V_id
p2640
I5697625
sVrawcites
p2641
(lp2642
I1040014
aI1170797
aI1173893
aI3199711
aI3568875
aI4231483
aI4917257
aI5217136
asaa(lp2643
I5697626
a(dp2644
V_id
p2645
I5697626
sVrawcites
p2646
(lp2647
I431307
aI757680
aI2062026
aI3608957
aI3758134
aI3774720
aI3887217
aI4249634
aI4275664
aI4453684
aI4457402
aI4909700
aI5137294
aI5358268
asaa(lp2648
I5697627
a(dp2649
V_id
p2650
I5697627
sVrawcites
p2651
(lp2652
I1190089
aI1977035
aI1998293
aI2164870
aI5163696
aI5224724
aI5405157
asaa(lp2653
I5697629
a(dp2654
V_id
p2655
I5697629
sVrawcites
p2656
(lp2657
I2280734
aI2789832
aI3430983
aI3458073
aI3529737
aI3713672
aI3740074
aI3764163
aI3776572
aI3778087
aI3822898
aI3843001
aI3979137
aI5123802
aI5145308
aI5228712
aI5234307
aI5362195
asaa(lp2658
I5697632
a(dp2659
V_id
p2660
I5697632
sVrawcites
p2661
(lp2662
I2065071
aI2674465
aI3273909
aI4509772
aI4595216
aI4641853
aI4831744
aI4836574
aI4953889
aI4953894
aI5538273
asaa(lp2663
I5697635
a(dp2664
V_id
p2665
I5697635
sVrawcites
p2666
(lp2667
I4834418
aI5261691
aI5265913
aI5273308
aI5338010
aI5593176
asaa(lp2668
I5697636
a(dp2669
V_id
p2670
I5697636
sVrawcites
p2671
(lp2672
I5090729
aI5421607
aI5454588
aI5549326
asaa(lp2673
I5697637
a(dp2674
V_id
p2675
I5697637
sVrawcites
p2676
(lp2677
I3887215
aI4325568
aI4913461
aI4915410
aI4943027
aI4988119
aI5141247
aI5184843
aI5275431
aI5518266
aI5529332
asaa(lp2678
I5697640
a(dp2679
V_id
p2680
I5697640
sVrawcites
p2681
(lp2682
I4010055
aI4944529
aI5360233
aI5445414
aI5454595
aI5568938
asaa(lp2683
I5697642
a(dp2684
V_id
p2685
I5697642
sVrawcites
p2686
(lp2687
I4345665
aI4359237
aI4451062
aI4592571
asaa(lp2688
I5697643
a(dp2689
V_id
p2690
I5697643
sVrawcites
p2691
(lp2692
I2035897
aI3292940
aI5197572
aI5236224
aI5531462
asaa(lp2693
I5697644
a(dp2694
V_id
p2695
I5697644
sVrawcites
p2696
(lp2697
I1719646
aI2264228
aI3495673
aI4617209
aI4620745
aI4678198
aI4784430
aI5238268
aI5314230
aI5340154
asaa(lp2698
I5697645
a(dp2699
V_id
p2700
I5697645
sVrawcites
p2701
(lp2702
I2196225
aI2843074
aI3341222
aI3582108
aI3869617
aI5199742
aI5257822
asaa(lp2703
I5697646
a(dp2704
V_id
p2705
I5697646
sVrawcites
p2706
(lp2707
I4711469
aI4907905
aI4941804
aI5417510
asaa(lp2708
I5697647
a(dp2709
V_id
p2710
I5697647
sVrawcites
p2711
(lp2712
I1018641
aI1680164
aI3275343
aI3633298
aI4043063
aI4489958
aI4669754
aI4794711
aI4813711
aI4932682
aI5374083
asaa(lp2713
I5697648
a(dp2714
V_id
p2715
I5697648
sVrawcites
p2716
(lp2717
I4418865
aI4491334
aI4565317
aI4682793
aI5183203
aI5190210
aI5476420
aI5507526
asaa(lp2718
I5697653
a(dp2719
V_id
p2720
I5697653
sVrawcites
p2721
(lp2722
I477021
aI789790
aI954720
aI1194636
aI1460133
aI1846364
aI1847392
aI2125655
aI3107112
aI3180663
aI3586361
aI4936005
asaa(lp2723
I5697654
a(dp2724
V_id
p2725
I5697654
sVrawcites
p2726
(lp2727
I447488
aI2591111
aI3007732
aI3287055
aI4376379
aI4476700
aI4971369
aI5086587
aI5088786
aI5318333
aI5333920
asaa(lp2728
I5697655
a(dp2729
V_id
p2730
I5697655
sVrawcites
p2731
(lp2732
I1743314
aI2229543
aI2615461
aI3300891
aI3568715
aI3637245
aI3744830
aI3878858
aI4007643
aI4103697
aI4185507
aI4371143
aI4511114
aI4513629
aI4542760
aI4632438
aI4763869
aI4789922
aI4815574
aI4844113
aI4915122
aI4941640
aI5035451
aI5050629
aI5114193
aI5119841
aI5147099
aI5152562
aI5209454
aI5307699
aI5312143
aI5360243
asaa(lp2733
I5697656
a(dp2734
V_id
p2735
I5697656
sVrawcites
p2736
(lp2737
I2205614
aI2459070
aI2784443
aI4160972
aI4208841
aI4230353
aI4530607
aI4553134
aI4888578
aI5006832
aI5368349
aI5463371
aI5468032
asaa(lp2738
I5697413
a(dp2739
V_id
p2740
I5697413
sVrawcites
p2741
(lp2742
I2643689
aI2643690
aI3547170
aI4575805
aI4830555
aI5040581
aI5106243
aI5110239
aI5249614
aI5297907
aI5340247
aI5383751
aI5486746
aI5575099
asaa(lp2743
I5697414
a(dp2744
V_id
p2745
I5697414
sVrawcites
p2746
(lp2747
I1644801
aI2666463
aI4051882
aI5480679
asaa(lp2748
I5697415
a(dp2749
V_id
p2750
I5697415
sVrawcites
p2751
(lp2752
I497915
aI3172417
aI4655653
aI4715415
aI4742856
aI4763706
aI4871002
aI4986152
aI5038841
aI5090835
asaa(lp2753
I5697416
a(dp2754
V_id
p2755
I5697416
sVrawcites
p2756
(lp2757
I3411562
aI3763908
aI3910330
aI4821785
aI4948191
aI4958881
aI4997229
aI5037156
aI5056817
aI5123468
aI5129678
aI5188417
aI5195778
aI5273316
aI5292167
aI5356191
aI5435362
aI5456515
asaa(lp2758
I5697417
a(dp2759
V_id
p2760
I5697417
sVrawcites
p2761
(lp2762
I4117876
aI4253689
aI4508126
aI4719954
aI4819706
aI5148848
aI5172743
asaa(lp2763
I5697419
a(dp2764
V_id
p2765
I5697419
sVrawcites
p2766
(lp2767
I1811610
aI3836372
aI5388631
aI5401801
asaa(lp2768
I5697420
a(dp2769
V_id
p2770
I5697420
sVrawcites
p2771
(lp2772
I4313249
asaa(lp2773
I5697421
a(dp2774
V_id
p2775
I5697421
sVrawcites
p2776
(lp2777
I3553820
aI3871834
aI4450207
aI4614690
aI4732779
aI4929513
aI4978585
aI5017438
aI5045407
aI5283026
asaa(lp2778
I5697422
a(dp2779
V_id
p2780
I5697422
sVrawcites
p2781
(lp2782
I2785448
aI2932865
aI3008202
aI3270383
aI3344848
aI3685572
aI3901306
aI4059143
aI4955426
aI4997027
asaa(lp2783
I5697423
a(dp2784
V_id
p2785
I5697423
sVrawcites
p2786
(lp2787
I3478808
aI3570583
aI3570586
aI3626479
aI3795269
aI3865176
aI4235276
aI4425411
aI4625788
aI4660619
aI4674555
aI4674556
aI4807692
aI4934444
aI4949777
asaa(lp2788
I5697424
a(dp2789
V_id
p2790
I5697424
sVrawcites
p2791
(lp2792
I4112999
aI4620353
aI4724886
aI4724894
aI5054538
aI5062465
aI5069267
aI5125448
asaa(lp2793
I5697426
a(dp2794
V_id
p2795
I5697426
sVrawcites
p2796
(lp2797
I3929189
aI3998268
aI4325171
aI4359088
aI4570883
asaa(lp2798
I5697427
a(dp2799
V_id
p2800
I5697427
sVrawcites
p2801
(lp2802
I3711081
aI4189230
aI4542298
aI4671204
aI4909314
aI4949783
aI5033538
aI5113929
aI5131460
aI5180000
aI5199483
aI5228501
aI5267607
aI5281320
aI5307709
aI5326725
aI5382311
aI5421401
aI5427670
aI5446824
asaa(lp2803
I5697428
a(dp2804
V_id
p2805
I5697428
sVrawcites
p2806
(lp2807
I1808617
aI3971435
aI4155402
aI4452051
aI4567505
aI4590993
aI4602679
aI4706740
aI4712158
aI4727454
aI4921041
aI5051814
aI5179500
aI5219020
asaa(lp2808
I5697429
a(dp2809
V_id
p2810
I5697429
sVrawcites
p2811
(lp2812
I2360123
aI4815532
asaa(lp2813
I5697435
a(dp2814
V_id
p2815
I5697435
sVrawcites
p2816
(lp2817
I1509782
aI4784218
aI4957160
asaa(lp2818
I5697436
a(dp2819
V_id
p2820
I5697436
sVrawcites
p2821
(lp2822
I4744408
aI4925089
aI5091844
aI5153807
aI5170341
aI5200681
aI5207379
aI5208744
aI5291390
asaa(lp2823
I5697437
a(dp2824
V_id
p2825
I5697437
sVrawcites
p2826
(lp2827
I4745850
aI4832122
aI4895085
aI5017289
aI5220958
aI5288169
aI5445474
aI5553974
asaa(lp2828
I5697439
a(dp2829
V_id
p2830
I5697439
sVrawcites
p2831
(lp2832
I1525582
aI1728432
aI1786407
aI1811013
aI2312487
aI2548616
aI2567009
aI3116781
aI3182877
aI3285485
aI3373818
aI3797570
aI3827487
aI4479537
aI4844166
aI4986360
aI5002130
aI5027903
aI5088559
aI5092400
aI5148865
aI5285850
asaa(lp2833
I5697441
a(dp2834
V_id
p2835
I5697441
sVrawcites
p2836
(lp2837
I4069869
aI4539292
aI4559310
aI4921047
aI4972906
aI5090481
aI5107927
aI5197543
aI5215147
aI5240074
asaa(lp2838
I5697451
a(dp2839
V_id
p2840
I5697451
sVrawcites
p2841
(lp2842
I1239400
aI1319936
aI1519244
aI1771541
aI2395599
aI2531379
aI2670846
aI2797793
aI3184029
aI3276558
aI3750211
aI3771651
aI4049058
aI4260053
aI4266650
aI4416334
aI4471876
aI4699218
aI5143194
aI5247717
asaa(lp2843
I5809986
a(dp2844
V_id
p2845
I5809986
sVrawcites
p2846
(lp2847
I3841297
aI5616065
asaa(lp2848
I5809992
a(dp2849
V_id
p2850
I5809992
sVrawcites
p2851
(lp2852
I2991764
aI4480592
aI4993377
aI5573184
asaa(lp2853
I5810017
a(dp2854
V_id
p2855
I5810017
sVrawcites
p2856
(lp2857
I3626953
aI5337761
aI5622189
asaa(lp2858
I5810019
a(dp2859
V_id
p2860
I5810019
sVrawcites
p2861
(lp2862
I3693631
asaa(lp2863
I5810039
a(dp2864
V_id
p2865
I5810039
sVrawcites
p2866
(lp2867
I4869225
aI5058557
aI5080077
asaa(lp2868
I5810042
a(dp2869
V_id
p2870
I5810042
sVrawcites
p2871
(lp2872
I1213159
aI2615464
aI2840016
aI3805819
aI4827965
asaa(lp2873
I5810068
a(dp2874
V_id
p2875
I5810068
sVrawcites
p2876
(lp2877
I5314001
asaa(lp2878
I5810118
a(dp2879
V_id
p2880
I5810118
sVrawcites
p2881
(lp2882
I4041845
asaa(lp2883
I5810275
a(dp2884
V_id
p2885
I5810275
sVrawcites
p2886
(lp2887
I4711410
aI5573197
asaa(lp2888
I5810312
a(dp2889
V_id
p2890
I5810312
sVrawcites
p2891
(lp2892
I4599822
aI4748125
aI5577342
asaa(lp2893
I5179850
a(dp2894
V_id
p2895
I5179850
sVrawcites
p2896
(lp2897
I4712398
aI4849749
aI4932228
aI4936896
asaa(lp2898
I5179900
a(dp2899
V_id
p2900
I5179900
sVrawcites
p2901
(lp2902
saa(lp2903
I5179904
a(dp2904
V_id
p2905
I5179904
sVrawcites
p2906
(lp2907
I2609773
aI3705561
aI3894500
aI3970013
asaa(lp2908
I5179960
a(dp2909
V_id
p2910
I5179960
sVrawcites
p2911
(lp2912
I2594621
aI3604410
asaa(lp2913
I5179996
a(dp2914
V_id
p2915
I5179996
sVrawcites
p2916
(lp2917
I3844336
aI4456579
aI4552199
aI4677623
asaa(lp2918
I5180116
a(dp2919
V_id
p2920
I5180116
sVrawcites
p2921
(lp2922
I2574883
aI3064917
aI3695541
asaa(lp2923
I5180124
a(dp2924
V_id
p2925
I5180124
sVrawcites
p2926
(lp2927
I4858861
asaa(lp2928
I5180183
a(dp2929
V_id
p2930
I5180183
sVrawcites
p2931
(lp2932
I3877711
aI4480850
asaa(lp2933
I5180199
a(dp2934
V_id
p2935
I5180199
sVrawcites
p2936
(lp2937
I1489981
aI1820238
aI2180606
aI3761135
asaa(lp2938
I6432223
a(dp2939
V_id
p2940
I6432223
sVrawcites
p2941
(lp2942
I4702780
aI5334267
aI5411604
aI5500057
asaa(lp2943
I6432227
a(dp2944
V_id
p2945
I6432227
sVrawcites
p2946
(lp2947
I5853499
aI6039818
aI6139650
aI6159309
asaa(lp2948
I6432228
a(dp2949
V_id
p2950
I6432228
sVrawcites
p2951
(lp2952
I4127427
asaa(lp2953
I6432240
a(dp2954
V_id
p2955
I6432240
sVrawcites
p2956
(lp2957
I4152188
aI5028287
aI5196676
aI6340045
asaa(lp2958
I6432251
a(dp2959
V_id
p2960
I6432251
sVrawcites
p2961
(lp2962
I4090648
aI5922161
asaa(lp2963
I6432263
a(dp2964
V_id
p2965
I6432263
sVrawcites
p2966
(lp2967
I5958179
asaa(lp2968
I6432265
a(dp2969
V_id
p2970
I6432265
sVrawcites
p2971
(lp2972
I3688563
aI4683207
aI4880973
aI6062073
asaa(lp2973
I6450624
a(dp2974
V_id
p2975
I6450624
sVrawcites
p2976
(lp2977
I4689694
asaa(lp2978
I6450650
a(dp2979
V_id
p2980
I6450650
sVrawcites
p2981
(lp2982
I4313675
aI4693373
aI4875064
asaa(lp2983
I6450651
a(dp2984
V_id
p2985
I6450651
sVrawcites
p2986
(lp2987
I4751950
asaa(lp2988
I6450653
a(dp2989
V_id
p2990
I6450653
sVrawcites
p2991
(lp2992
I4266856
aI4398239
aI4740068
aI5586393
asaa(lp2993
I6450658
a(dp2994
V_id
p2995
I6450658
sVrawcites
p2996
(lp2997
I6019577
aI6160956
asaa(lp2998
I6450692
a(dp2999
V_id
p3000
I6450692
sVrawcites
p3001
(lp3002
I5782135
aI5904426
asaa(lp3003
I6450705
a(dp3004
V_id
p3005
I6450705
sVrawcites
p3006
(lp3007
I5812890
aI6317568
asaa(lp3008
I6450707
a(dp3009
V_id
p3010
I6450707
sVrawcites
p3011
(lp3012
I4791443
aI5250974
aI5826131
asaa(lp3013
I4552237
a(dp3014
V_id
p3015
I4552237
sVrawcites
p3016
(lp3017
I4137976
aI4418772
aI4508185
asaa(lp3018
I4552245
a(dp3019
V_id
p3020
I4552245
sVrawcites
p3021
(lp3022
I3973646
asaa(lp3023
I4552263
a(dp3024
V_id
p3025
I4552263
sVrawcites
p3026
(lp3027
I2885056
aI3620345
aI3680920
aI4047762
asaa(lp3028
I4552342
a(dp3029
V_id
p3030
I4552342
sVrawcites
p3031
(lp3032
I3336020
asaa(lp3033
I4552355
a(dp3034
V_id
p3035
I4552355
sVrawcites
p3036
(lp3037
I4339120
asaa(lp3038
I4552398
a(dp3039
V_id
p3040
I4552398
sVrawcites
p3041
(lp3042
I4109968
asaa(lp3043
I4552452
a(dp3044
V_id
p3045
I4552452
sVrawcites
p3046
(lp3047
I2405233
aI4053219
aI4452527
asaa(lp3048
I4552474
a(dp3049
V_id
p3050
I4552474
sVrawcites
p3051
(lp3052
I2879876
aI3366215
aI3618736
asaa(lp3053
I4552563
a(dp3054
V_id
p3055
I4552563
sVrawcites
p3056
(lp3057
I3746646
aI4110242
asaa(lp3058
I4552567
a(dp3059
V_id
p3060
I4552567
sVrawcites
p3061
(lp3062
I1294218
aI1566496
asaa(lp3063
I4552587
a(dp3064
V_id
p3065
I4552587
sVrawcites
p3066
(lp3067
I4200452
asaa(lp3068
I4552622
a(dp3069
V_id
p3070
I4552622
sVrawcites
p3071
(lp3072
I2986758
asaa(lp3073
I4552653
a(dp3074
V_id
p3075
I4552653
sVrawcites
p3076
(lp3077
I4256572
asaa(lp3078
I3931849
a(dp3079
V_id
p3080
I3931849
sVrawcites
p3081
(lp3082
I3338297
aI3448789
aI3520351
aI3528486
asaa(lp3083
I3931900
a(dp3084
V_id
p3085
I3931900
sVrawcites
p3086
(lp3087
I1017586
aI1469369
aI2078507
aI3266540
asaa(lp3088
I3931929
a(dp3089
V_id
p3090
I3931929
sVrawcites
p3091
(lp3092
I3001694
aI3556396
aI3870224
asaa(lp3093
I3931962
a(dp3094
V_id
p3095
I3931962
sVrawcites
p3096
(lp3097
I1111386
aI2174837
aI2679178
asaa(lp3098
I3931979
a(dp3099
V_id
p3100
I3931979
sVrawcites
p3101
(lp3102
I1052091
aI1239873
aI2739361
aI3466971
asaa(lp3103
I3931981
a(dp3104
V_id
p3105
I3931981
sVrawcites
p3106
(lp3107
I2777706
aI2788981
aI2793869
asaa(lp3108
I3932019
a(dp3109
V_id
p3110
I3932019
sVrawcites
p3111
(lp3112
I2047384
aI3184702
aI3519977
asaa(lp3113
I3932108
a(dp3114
V_id
p3115
I3932108
sVrawcites
p3116
(lp3117
I3098664
aI3270117
aI3461505
aI3466707
aI3689190
aI3767507
asaa(lp3118
I3932122
a(dp3119
V_id
p3120
I3932122
sVrawcites
p3121
(lp3122
I3640674
asaa(lp3123
I3932165
a(dp3124
V_id
p3125
I3932165
sVrawcites
p3126
(lp3127
I2921106
aI3658505
aI3843346
asaa(lp3128
I3932177
a(dp3129
V_id
p3130
I3932177
sVrawcites
p3131
(lp3132
I2558823
aI3429700
aI3600013
asaa(lp3133
I3932178
a(dp3134
V_id
p3135
I3932178
sVrawcites
p3136
(lp3137
I3562371
aI3599281
asaa(lp3138
I3932203
a(dp3139
V_id
p3140
I3932203
sVrawcites
p3141
(lp3142
I3765957
asaa(lp3143
I3932230
a(dp3144
V_id
p3145
I3932230
sVrawcites
p3146
(lp3147
I1855455
aI2150353
asaa(lp3148
I5697425
a(dp3149
V_id
p3150
I5697425
sVrawcites
p3151
(lp3152
saa(lp3153
I5697430
a(dp3154
V_id
p3155
I5697430
sVrawcites
p3156
(lp3157
I3496752
aI3779312
aI3847212
aI3881342
aI4060125
aI4660630
aI4729155
aI4765058
aI4921042
aI4938282
aI5052476
aI5054548
aI5146979
aI5186252
aI5203404
aI5222299
aI5333682
aI5513699
asaa(lp3158
I5697433
a(dp3159
V_id
p3160
I5697433
sVrawcites
p3161
(lp3162
I3810509
aI4470452
aI4570700
aI5111877
aI5125453
aI5186250
asaa(lp3163
I5697438
a(dp3164
V_id
p3165
I5697438
sVrawcites
p3166
(lp3167
I3339636
aI4153109
aI4665995
aI4765404
aI5109924
aI5193620
aI5287921
aI5311936
aI5335737
aI5341873
aI5437340
aI5443129
asaa(lp3168
I5697440
a(dp3169
V_id
p3170
I5697440
sVrawcites
p3171
(lp3172
I4888240
aI4895207
aI5218038
aI5316792
aI5330005
aI5420174
aI5425994
aI5439055
aI5501274
aI5501275
aI5520250
aI5551514
aI5582249
asaa(lp3173
I5697445
a(dp3174
V_id
p3175
I5697445
sVrawcites
p3176
(lp3177
I2397070
aI2452920
aI2766010
aI2789893
aI2858107
aI3330349
aI3887021
aI3908759
aI4396075
aI4402551
aI4415205
aI4444276
aI4573541
aI4714117
aI4742871
aI4800966
aI4807704
aI4869323
aI4880059
aI4915172
aI4928763
aI4949788
aI5040601
aI5113938
aI5131467
aI5289876
aI5301760
aI5311936
aI5318121
aI5318122
aI5322127
aI5325924
aI5330007
aI5337808
aI5353876
aI5375661
aI5388648
aI5398754
aI5411082
aI5423387
aI5427177
aI5499680
asaa(lp3178
I5697448
a(dp3179
V_id
p3180
I5697448
sVrawcites
p3181
(lp3182
I4296810
aI4469170
aI4766957
aI5099920
aI5497832
asaa(lp3183
I5697449
a(dp3184
V_id
p3185
I5697449
sVrawcites
p3186
(lp3187
I2384192
aI3171491
aI3232347
aI3306366
aI3465820
aI3543849
aI4598774
asaa(lp3188
I5697452
a(dp3189
V_id
p3190
I5697452
sVrawcites
p3191
(lp3192
I3812918
aI4890801
aI4966239
aI5044446
aI5129462
aI5215278
aI5307880
asaa(lp3193
I5697459
a(dp3194
V_id
p3195
I5697459
sVrawcites
p3196
(lp3197
I3792741
aI4126193
aI4314615
aI4359109
aI4463814
aI4727763
asaa(lp3198
I5697462
a(dp3199
V_id
p3200
I5697462
sVrawcites
p3201
(lp3202
I1896251
aI2086486
aI2177332
aI2333746
aI2363202
aI2527838
aI2533257
aI2533258
aI2533259
aI2533260
aI2687875
aI2759706
aI2774570
aI2774571
aI2804282
aI2887302
aI2907551
aI2939684
aI2965184
aI3104726
aI3397751
aI3412817
aI3442342
aI3946820
aI4140189
aI4148368
aI4343371
aI4393948
aI4832139
aI4869329
aI4940099
aI5145016
aI5197555
aI5201376
aI5224560
aI5311958
aI5323865
asaa(lp3203
I5697465
a(dp3204
V_id
p3205
I5697465
sVrawcites
p3206
(lp3207
I2586273
aI3566986
aI3820790
aI5022476
aI5249636
asaa(lp3208
I5697466
a(dp3209
V_id
p3210
I5697466
sVrawcites
p3211
(lp3212
I4305254
aI4313080
aI4335429
aI4470476
aI4533011
aI5117931
aI5176213
aI5343970
asaa(lp3213
I5697468
a(dp3214
V_id
p3215
I5697468
sVrawcites
p3216
(lp3217
I2261363
aI3144220
aI3261419
aI3627235
aI3831887
aI3860200
aI5314035
aI5335742
aI5566775
asaa(lp3218
I5697472
a(dp3219
V_id
p3220
I5697472
sVrawcites
p3221
(lp3222
I3376959
aI4186822
aI5035303
asaa(lp3223
I5697477
a(dp3224
V_id
p3225
I5697477
sVrawcites
p3226
(lp3227
I4307875
aI4819770
aI4877115
aI5325943
aI5409087
asaa(lp3228
I5697479
a(dp3229
V_id
p3230
I5697479
sVrawcites
p3231
(lp3232
I4468988
aI4582185
aI4940122
aI4947734
aI4953677
aI5105926
aI5527233
aI5620390
asaa(lp3233
I5697480
a(dp3234
V_id
p3235
I5697480
sVrawcites
p3236
(lp3237
I3212740
aI4344729
aI4514616
aI4620831
aI4661038
aI4673329
aI4702667
aI4759686
aI5002173
aI5361881
aI5484219
asaa(lp3238
I5697482
a(dp3239
V_id
p3240
I5697482
sVrawcites
p3241
(lp3242
I4598810
aI4969549
aI5147021
aI5179517
asaa(lp3243
I5697489
a(dp3244
V_id
p3245
I5697489
sVrawcites
p3246
(lp3247
I1069870
aI2013144
aI4789016
asaa(lp3248
I5697491
a(dp3249
V_id
p3250
I5697491
sVrawcites
p3251
(lp3252
I2805182
aI3871946
aI4287984
aI4371580
aI4469729
aI4500666
aI4979591
aI5244080
aI5421450
asaa(lp3253
I5697492
a(dp3254
V_id
p3255
I5697492
sVrawcites
p3256
(lp3257
I2114146
aI4754872
aI5027944
aI5404997
asaa(lp3258
I5697493
a(dp3259
V_id
p3260
I5697493
sVrawcites
p3261
(lp3262
I4288672
aI4598181
aI4771139
aI4937408
aI4954668
aI5280145
aI5403984
asaa(lp3263
I5697498
a(dp3264
V_id
p3265
I5697498
sVrawcites
p3266
(lp3267
I4502569
aI4762225
aI4765469
aI5161682
aI5188228
aI5246107
aI5295577
aI5322162
aI5590767
asaa(lp3268
I5697499
a(dp3269
V_id
p3270
I5697499
sVrawcites
p3271
(lp3272
I4635792
asaa(lp3273
I5697500
a(dp3274
V_id
p3275
I5697500
sVrawcites
p3276
(lp3277
I4619366
aI4936458
aI4960207
aI5325966
aI5332114
aI5544751
asaa(lp3278
I5697503
a(dp3279
V_id
p3280
I5697503
sVrawcites
p3281
(lp3282
I4236999
aI5255791
asaa(lp3283
I5697504
a(dp3284
V_id
p3285
I5697504
sVrawcites
p3286
(lp3287
I4632252
aI4641753
aI5031223
aI5151948
asaa(lp3288
I5697510
a(dp3289
V_id
p3290
I5697510
sVrawcites
p3291
(lp3292
I1156915
aI3167202
aI4905863
aI5397024
asaa(lp3293
I5697511
a(dp3294
V_id
p3295
I5697511
sVrawcites
p3296
(lp3297
I3412891
aI3864812
aI3918628
aI4039115
aI4241843
aI4624388
aI4724975
aI5102005
aI5217140
aI5320247
aI5460317
asaa(lp3298
I5697524
a(dp3299
V_id
p3300
I5697524
sVrawcites
p3301
(lp3302
I4493436
aI4771919
aI5161715
aI5443182
asaa(lp3303
I5697526
a(dp3304
V_id
p3305
I5697526
sVrawcites
p3306
(lp3307
I2541352
aI2746646
aI4256242
aI4288007
aI4773569
aI4804118
aI4946075
aI4961508
aI5248066
aI5333758
aI5524795
asaa(lp3308
I5697527
a(dp3309
V_id
p3310
I5697527
sVrawcites
p3311
(lp3312
I2724581
aI2923438
aI3851798
aI4027783
aI5078302
aI5119973
aI5129551
aI5460297
asaa(lp3313
I5697532
a(dp3314
V_id
p3315
I5697532
sVrawcites
p3316
(lp3317
I3176889
aI3209960
aI3394851
aI4015752
aI4078705
asaa(lp3318
I5697533
a(dp3319
V_id
p3320
I5697533
sVrawcites
p3321
(lp3322
I2878971
aI3332586
aI3355069
aI4925067
aI5425483
asaa(lp3323
I5697289
a(dp3324
V_id
p3325
I5697289
sVrawcites
p3326
(lp3327
I2646495
aI3604338
aI5371829
asaa(lp3328
I5697296
a(dp3329
V_id
p3330
I5697296
sVrawcites
p3331
(lp3332
I3366047
aI4183297
aI4509425
aI4598640
aI4815377
asaa(lp3333
I5697298
a(dp3334
V_id
p3335
I5697298
sVrawcites
p3336
(lp3337
I3908980
aI5328167
asaa(lp3338
I5697302
a(dp3339
V_id
p3340
I5697302
sVrawcites
p3341
(lp3342
I1979578
aI2714559
aI3452497
aI3738405
aI4196244
aI4603074
aI4616434
aI4708183
aI4716840
aI4750402
aI4844972
aI4917932
aI5284099
asaa(lp3343
I5697431
a(dp3344
V_id
p3345
I5697431
sVrawcites
p3346
(lp3347
I1373716
aI1468110
aI1787734
aI5205349
aI5209290
aI5261633
aI5429182
aI5441100
asaa(lp3348
I5697432
a(dp3349
V_id
p3350
I5697432
sVrawcites
p3351
(lp3352
I4709753
aI4715437
aI5042576
aI5109919
asaa(lp3353
I5697434
a(dp3354
V_id
p3355
I5697434
sVrawcites
p3356
(lp3357
I3135537
aI3253423
aI3451641
aI3894911
aI4182379
aI4507941
aI4927192
aI5099311
aI5224030
aI5350200
asaa(lp3358
I5697442
a(dp3359
V_id
p3360
I5697442
sVrawcites
p3361
(lp3362
I1460632
aI1786761
aI1998833
aI2253415
aI2295803
aI2654435
aI2730177
aI2762441
aI4712619
aI4825947
aI5377761
asaa(lp3363
I5697443
a(dp3364
V_id
p3365
I5697443
sVrawcites
p3366
(lp3367
I3077454
aI3773465
aI4498997
aI4670163
aI4698168
aI4734259
aI4790958
aI4997040
aI5089153
aI5120471
aI5366643
aI5411670
aI5441929
asaa(lp3368
I5697446
a(dp3369
V_id
p3370
I5697446
sVrawcites
p3371
(lp3372
I3115933
aI3163224
aI3189093
aI3871184
aI3983706
aI4305468
aI4913238
aI5226482
aI5526882
asaa(lp3373
I5697447
a(dp3374
V_id
p3375
I5697447
sVrawcites
p3376
(lp3377
I3572272
aI3983706
aI3993273
aI4529334
aI4556340
aI4704050
aI4741647
aI5380130
aI5421676
aI5553976
asaa(lp3378
I5697450
a(dp3379
V_id
p3380
I5697450
sVrawcites
p3381
(lp3382
I3440347
aI3582671
aI3653443
aI3824374
aI3884307
aI3970987
aI4011486
aI4171944
aI4258291
aI4349747
aI4356870
aI4365238
aI4432041
aI4446454
aI4476554
aI4524304
aI4524835
aI4602256
aI4617555
aI4630248
aI4773485
aI4800293
aI4830116
aI4834188
aI4887674
aI4901056
aI4910501
aI4934478
aI4947148
aI4973881
aI4979572
aI4991145
aI5012223
aI5019935
aI5127479
aI5148158
aI5162777
aI5177461
aI5207276
aI5297636
aI5351760
aI5508568
asaa(lp3383
I5697453
a(dp3384
V_id
p3385
I5697453
sVrawcites
p3386
(lp3387
I470981
aI584746
aI634158
aI800872
aI1594277
aI1801017
aI3444934
aI3530577
aI3548953
aI3982593
aI4122601
aI4122902
aI4305470
aI4353422
aI4452316
aI5390746
aI5452769
asaa(lp3388
I5697454
a(dp3389
V_id
p3390
I5697454
sVrawcites
p3391
(lp3392
I1501652
aI1864639
aI3056458
aI3090639
aI3425715
aI3460635
aI3838740
aI3887015
aI4203613
aI4236724
aI4583756
aI4640522
aI4645226
aI4650206
aI4778194
aI4790557
aI4852657
aI4862971
aI4865134
aI4940096
aI5246077
aI5361850
asaa(lp3393
I5697455
a(dp3394
V_id
p3395
I5697455
sVrawcites
p3396
(lp3397
I617454
aI2826133
aI3173498
aI3362361
aI4278036
aI4295532
aI4377979
aI4425973
aI4430952
aI4483401
aI4585073
aI4623024
aI4660653
aI4691645
aI4738316
aI4785890
aI4840020
aI4846084
aI4974683
aI5076180
aI5129282
aI5398771
asaa(lp3398
I5697456
a(dp3399
V_id
p3400
I5697456
sVrawcites
p3401
(lp3402
I1358486
aI1597245
aI2290256
aI3637029
aI3727700
aI3824417
aI3849883
aI3968843
aI3972119
aI4010544
aI4138812
aI4282938
aI4401167
aI4460051
aI4478293
aI4611671
aI4614241
aI4648468
aI4749049
aI4771833
aI4776408
aI4819742
aI4825548
aI4905772
aI4921053
aI5025870
aI5027910
aI5031273
aI5046566
aI5052500
aI5054562
aI5080180
aI5125189
aI5157807
aI5269381
aI5368107
asaa(lp3403
I5697457
a(dp3404
V_id
p3405
I5697457
sVrawcites
p3406
(lp3407
I2410959
aI2869826
aI3131776
aI3768578
aI3814194
aI3867989
aI3920084
aI3957125
aI3958376
aI4088289
aI4703812
aI4877091
aI5094302
asaa(lp3408
I5697458
a(dp3409
V_id
p3410
I5697458
sVrawcites
p3411
(lp3412
I3062740
aI3558545
aI3561548
aI3699042
aI3718585
aI3734856
aI3760892
aI3880764
aI3899431
aI3948782
aI4012329
aI4064056
aI4235728
aI4536297
aI4657593
aI5094762
aI5330015
asaa(lp3413
I5697460
a(dp3414
V_id
p3415
I5697460
sVrawcites
p3416
(lp3417
I3250578
aI4385669
aI4436158
aI4674580
aI4811800
aI4874045
asaa(lp3418
I5697461
a(dp3419
V_id
p3420
I5697461
sVrawcites
p3421
(lp3422
I790330
aI2167194
aI2864601
aI3370657
aI3419091
aI3762828
aI4384747
aI4534426
aI4549614
aI5099934
aI5131478
aI5339910
asaa(lp3423
I5697463
a(dp3424
V_id
p3425
I5697463
sVrawcites
p3426
(lp3427
I3482852
aI3735830
aI3980149
aI3990725
aI3994352
aI4325443
aI4491342
aI4521033
aI4582153
aI4892329
aI4893687
aI4966386
aI4991872
asaa(lp3428
I5697464
a(dp3429
V_id
p3430
I5697464
sVrawcites
p3431
(lp3432
I2536749
aI2644540
aI2843180
aI3266589
aI3513925
aI3599408
aI3797597
asaa(lp3433
I5697467
a(dp3434
V_id
p3435
I5697467
sVrawcites
p3436
(lp3437
I2197648
aI2254088
aI2668320
aI2840847
aI2956303
aI3009192
aI3351975
aI3400974
aI3643755
aI3815176
aI4093290
aI4125170
aI4249632
aI4382312
aI4747637
aI5263546
aI5435406
asaa(lp3438
I5697469
a(dp3439
V_id
p3440
I5697469
sVrawcites
p3441
(lp3442
I4534441
aI4569536
aI4632208
aI4984651
aI5201385
aI5278764
aI5441304
asaa(lp3443
I5697470
a(dp3444
V_id
p3445
I5697470
sVrawcites
p3446
(lp3447
I3481429
aI5341897
asaa(lp3448
I5697471
a(dp3449
V_id
p3450
I5697471
sVrawcites
p3451
(lp3452
I2833587
aI2958873
aI3380085
aI3743344
aI3982718
aI4435862
aI4685731
aI4860394
aI5022105
aI5135350
aI5271113
aI5279011
aI5285992
aI5495914
asaa(lp3453
I5697473
a(dp3454
V_id
p3455
I5697473
sVrawcites
p3456
(lp3457
I2620901
aI3045782
aI3095068
aI3171515
aI3175664
aI3221845
aI3242696
aI3500971
aI3525424
aI3584720
aI3863038
aI3878922
aI4042077
aI4181201
aI4362227
aI4763764
aI4798269
aI4940124
aI5186287
aI5421436
aI5437351
asaa(lp3458
I5697474
a(dp3459
V_id
p3460
I5697474
sVrawcites
p3461
(lp3462
I5379867
aI5400875
aI5433298
aI5449052
aI5515949
aI5547048
aI5582273
asaa(lp3463
I5697475
a(dp3464
V_id
p3465
I5697475
sVrawcites
p3466
(lp3467
I4583622
aI4616518
aI4619347
aI5009292
aI5105682
aI5586623
asaa(lp3468
I5697476
a(dp3469
V_id
p3470
I5697476
sVrawcites
p3471
(lp3472
I3313330
aI3799296
aI4015696
aI4282953
aI4372430
aI4448290
aI4582179
aI4907679
aI5060758
aI5127631
aI5203392
aI5310028
asaa(lp3473
I5697478
a(dp3474
V_id
p3475
I5697478
sVrawcites
p3476
(lp3477
I3568806
aI3647028
aI3806180
aI4117741
asaa(lp3478
I5697481
a(dp3479
V_id
p3480
I5697481
sVrawcites
p3481
(lp3482
I4732250
aI5160007
asaa(lp3483
I5697483
a(dp3484
V_id
p3485
I5697483
sVrawcites
p3486
(lp3487
I3797628
aI3841456
aI3896915
aI3948377
aI3998309
aI4091908
aI4105105
aI4106610
aI4108296
aI4124111
aI4250905
aI4257435
aI4347924
aI4374529
aI4381835
aI4385684
aI4392505
aI4432447
aI4436196
aI4462513
aI4491140
aI4493411
aI4499982
aI4538719
aI4546869
aI4601380
aI4607650
aI4616323
aI4625851
aI4646904
aI4660705
aI4674618
aI4705154
aI4706202
aI4763769
aI4842119
aI4926996
aI4967896
aI4995497
aI5024313
aI5033603
aI5050719
aI5112275
aI5184708
aI5219059
aI5366058
aI5542519
asaa(lp3488
I5697484
a(dp3489
V_id
p3490
I5697484
sVrawcites
p3491
(lp3492
I4437558
aI5056644
asaa(lp3493
I5697485
a(dp3494
V_id
p3495
I5697485
sVrawcites
p3496
(lp3497
I3580376
aI5083653
aI5107975
aI5482153
aI5526256
asaa(lp3498
I5697486
a(dp3499
V_id
p3500
I5697486
sVrawcites
p3501
(lp3502
I2060491
aI2103327
aI2111433
aI2128310
aI2570135
aI2663400
aI2686585
aI4082173
asaa(lp3503
I5697487
a(dp3504
V_id
p3505
I5697487
sVrawcites
p3506
(lp3507
I3191743
aI3247947
aI3513780
aI3530799
aI4154336
aI4170281
aI4244457
aI4276976
aI4295556
aI4645059
aI5072821
asaa(lp3508
I5697488
a(dp3509
V_id
p3510
I5697488
sVrawcites
p3511
(lp3512
I3614166
aI3827757
aI4368742
aI4429781
aI4710966
asaa(lp3513
I5697490
a(dp3514
V_id
p3515
I5697490
sVrawcites
p3516
(lp3517
I371493
aI1974165
aI2938620
aI3087596
aI3817816
aI4164391
aI4425996
aI4432745
aI4490961
aI4629445
aI4715846
aI4747813
aI4757890
aI4791775
aI4860439
aI4991375
aI5096052
aI5345747
asaa(lp3518
I5697494
a(dp3519
V_id
p3520
I5697494
sVrawcites
p3521
(lp3522
I4054766
aI4102067
aI4175223
aI4218599
aI4222188
aI4355984
aI4636881
aI4703573
aI4778391
aI4791741
aI4809246
aI4990092
aI5167508
aI5209665
aI5422452
asaa(lp3523
I5697495
a(dp3524
V_id
p3525
I5697495
sVrawcites
p3526
(lp3527
I2361597
aI2887389
aI2917216
aI3394717
aI3414117
aI3545605
aI3605374
aI3630346
aI3715856
aI3780918
aI3872966
aI3910487
aI4495313
aI4565348
aI4640489
aI4680336
aI4691820
aI4889664
aI5039459
aI5054610
aI5080839
aI5094609
aI5337888
aI5467868
asaa(lp3528
I5697496
a(dp3529
V_id
p3530
I5697496
sVrawcites
p3531
(lp3532
I1502312
aI2827223
aI3522907
aI3556391
aI3949873
aI4176744
aI4210241
aI4327831
aI4535888
aI4623062
aI4635792
aI4709812
aI4733519
aI4850731
aI5042230
aI5101973
aI5186327
aI5188229
aI5236081
aI5248032
aI5255785
aI5284242
aI5307927
aI5332089
aI5369938
aI5372253
aI5377825
aI5377827
aI5402882
aI5421453
aI5460265
asaa(lp3533
I5697497
a(dp3534
V_id
p3535
I5697497
sVrawcites
p3536
(lp3537
I5259498
aI5267647
aI5388713
aI5471794
aI5477961
aI5495940
aI5513749
asaa(lp3538
I5697501
a(dp3539
V_id
p3540
I5697501
sVrawcites
p3541
(lp3542
I3467940
aI3653498
aI3774075
aI4019094
aI4617605
aI4971568
aI5108299
aI5163850
aI5164880
aI5259777
aI5289336
aI5401180
aI5538434
asaa(lp3543
I5697502
a(dp3544
V_id
p3545
I5697502
sVrawcites
p3546
(lp3547
I2519706
aI2979192
aI3185292
aI3443738
aI3491876
aI3608156
aI3964606
aI4120395
aI4140218
aI4362239
aI5002187
aI5271494
asaa(lp3548
I5697505
a(dp3549
V_id
p3550
I5697505
sVrawcites
p3551
(lp3552
I2188602
aI2914184
aI2922552
aI3088289
aI3123207
aI3757934
aI4164287
aI4205818
aI4473963
aI4664349
aI4753341
aI4760928
aI4917342
aI5494195
asaa(lp3553
I5697506
a(dp3554
V_id
p3555
I5697506
sVrawcites
p3556
(lp3557
I436600
aI1006334
aI1665271
aI1676492
aI1759862
aI1940078
aI2150802
aI3187903
aI4461387
aI5056748
aI5236760
asaa(lp3558
I5697507
a(dp3559
V_id
p3560
I5697507
sVrawcites
p3561
(lp3562
I3425568
aI3685234
aI5110080
aI5305898
aI5472103
aI5509541
asaa(lp3563
I5697508
a(dp3564
V_id
p3565
I5697508
sVrawcites
p3566
(lp3567
I2224090
aI2868390
aI3283914
aI3921814
aI4037728
aI4079840
aI4905826
asaa(lp3568
I5697509
a(dp3569
V_id
p3570
I5697509
sVrawcites
p3571
(lp3572
I852519
aI1863081
aI1996554
aI2669369
aI3067899
aI3171561
aI3254785
aI3285451
aI3292807
aI3300073
aI3379327
aI3412890
aI3421654
aI3434613
aI3473685
aI3603473
aI3625386
aI3899097
aI4060172
aI4200196
aI4354610
aI4358032
aI4362253
aI4371095
aI4403712
aI4503991
aI4616761
aI4726091
aI4881668
aI5251770
aI5292017
asaa(lp3573
I5697512
a(dp3574
V_id
p3575
I5697512
sVrawcites
p3576
(lp3577
I1857372
aI2590732
aI3372812
aI3942671
aI3955672
aI4291805
aI4732274
aI4867331
aI4989742
aI5259528
aI5323910
aI5346070
aI5429266
aI5542533
asaa(lp3578
I5697513
a(dp3579
V_id
p3580
I5697513
sVrawcites
p3581
(lp3582
I2117807
aI2324332
aI3204811
aI3346139
aI4651892
aI5261677
asaa(lp3583
I5697514
a(dp3584
V_id
p3585
I5697514
sVrawcites
p3586
(lp3587
I1325231
aI1700742
aI1866488
aI1886803
aI2094241
aI2146226
aI2598962
aI3071281
aI3504817
aI4529100
aI5125528
aI5163575
aI5328045
asaa(lp3588
I5697515
a(dp3589
V_id
p3590
I5697515
sVrawcites
p3591
(lp3592
I3437231
aI4114779
aI5158200
aI5217138
aI5217140
aI5379913
aI5431764
aI5509567
asaa(lp3593
I5697516
a(dp3594
V_id
p3595
I5697516
sVrawcites
p3596
(lp3597
I2683579
aI3180537
aI5123558
aI5312013
aI5447764
aI5570797
asaa(lp3598
I5697517
a(dp3599
V_id
p3600
I5697517
sVrawcites
p3601
(lp3602
I3767080
asaa(lp3603
I5697518
a(dp3604
V_id
p3605
I5697518
sVrawcites
p3606
(lp3607
I1347225
aI3459329
aI4416392
aI4586629
aI4586631
aI4653666
aI4674634
aI4742913
aI4768810
aI4770320
aI4781306
aI4907825
aI4986440
aI4993590
aI5050909
aI5080255
aI5086946
aI5135259
aI5158205
aI5167346
aI5397117
aI5401547
aI5518144
aI5543190
asaa(lp3608
I5697519
a(dp3609
V_id
p3610
I5697519
sVrawcites
p3611
(lp3612
I3102762
aI3135567
aI3146043
aI3684131
aI4049330
aI4317604
aI4391388
aI4927051
aI5048717
aI5533645
asaa(lp3613
I5697520
a(dp3614
V_id
p3615
I5697520
sVrawcites
p3616
(lp3617
I1133604
aI1666232
aI2715289
aI2876574
aI2931751
aI3162937
aI3181987
aI3294284
aI3322591
aI3463695
aI3988728
aI4305130
aI4359815
aI4415909
aI4524421
aI4546025
aI4599254
aI4641271
aI4704694
aI4715772
aI4757470
aI4845634
aI4851073
aI4852024
aI4869813
aI4878178
aI4878181
aI4878183
aI4891767
asaa(lp3618
I5697521
a(dp3619
V_id
p3620
I5697521
sVrawcites
p3621
(lp3622
I2611289
aI2754703
aI3215024
aI4071948
aI4170820
aI5016346
aI5142774
asaa(lp3623
I5697522
a(dp3624
V_id
p3625
I5697522
sVrawcites
p3626
(lp3627
I3366278
aI3788528
aI4085866
aI4411661
aI5024355
aI5048723
aI5086950
aI5114033
aI5139174
aI5163583
aI5180083
aI5263787
aI5286453
asaa(lp3628
I5697523
a(dp3629
V_id
p3630
I5697523
sVrawcites
p3631
(lp3632
I3308898
aI4137915
aI4944428
aI5127483
aI5322195
asaa(lp3633
I5697525
a(dp3634
V_id
p3635
I5697525
sVrawcites
p3636
(lp3637
I2772817
aI3485419
aI3829342
aI4573612
aI4776495
aI5176510
aI5242083
asaa(lp3638
I5697528
a(dp3639
V_id
p3640
I5697528
sVrawcites
p3641
(lp3642
I960650
aI1284248
aI1693146
aI1862057
aI3182919
aI4066186
aI4971259
asaa(lp3643
I5697529
a(dp3644
V_id
p3645
I5697529
sVrawcites
p3646
(lp3647
I4796786
aI5465873
asaa(lp3648
I5697530
a(dp3649
V_id
p3650
I5697530
sVrawcites
p3651
(lp3652
I3774849
aI4061247
aI4140249
aI4591076
aI4607765
aI4856677
aI4941595
aI4991746
aI5064105
aI5388766
asaa(lp3653
I5697531
a(dp3654
V_id
p3655
I5697531
sVrawcites
p3656
(lp3657
I642082
aI1312912
aI1663338
aI1803524
aI2233587
aI2276722
aI2371332
aI2568856
aI2917765
aI2923442
aI2998167
aI3078011
aI3121905
aI3756730
aI4009804
aI4019654
aI4030643
aI4122983
aI4126251
aI4221490
aI4264021
aI4356938
aI4456450
aI4461407
aI4595124
aI4624594
aI4681524
aI4702398
aI4778300
aI4923096
aI5000356
aI5540361
asaa(lp3658
I5697534
a(dp3659
V_id
p3660
I5697534
sVrawcites
p3661
(lp3662
I75937
aI476966
aI1597477
aI1705443
aI2191077
aI2204756
aI3206084
aI3224793
aI3940072
aI4273289
aI4514616
aI4563788
aI4697742
aI4951849
aI4969604
aI5194791
aI5361881
aI5377913
asaa(lp3663
I5697288
a(dp3664
V_id
p3665
I5697288
sVrawcites
p3666
(lp3667
I2786408
aI3122988
aI3143954
aI3208369
aI4133354
aI4353293
aI4426919
aI4632023
aI4713253
aI4713526
aI4791859
aI4903586
aI4922809
aI4936199
aI4967647
aI5309820
aI5337653
aI5346098
aI5353692
aI5520093
asaa(lp3668
I5697290
a(dp3669
V_id
p3670
I5697290
sVrawcites
p3671
(lp3672
I5031520
aI5209156
aI5375509
aI5384142
aI5419696
aI5520100
asaa(lp3673
I5697291
a(dp3674
V_id
p3675
I5697291
sVrawcites
p3676
(lp3677
I2517569
aI2833657
aI3092503
aI3289569
aI3706631
aI3814680
aI4014383
aI4409453
aI4534282
aI4731250
aI4808783
aI4839142
aI4839485
aI4896005
aI4904835
aI4956532
aI4975246
aI5049400
aI5066503
aI5074200
aI5288471
aI5333539
aI5334402
aI5389335
aI5403564
aI5514389
asaa(lp3678
I5697292
a(dp3679
V_id
p3680
I5697292
sVrawcites
p3681
(lp3682
I853066
aI998481
aI1455449
aI1808744
aI2144841
aI2230790
aI2316025
aI4034665
aI4389927
aI4608007
aI4708056
aI5303470
aI5361689
asaa(lp3683
I5697293
a(dp3684
V_id
p3685
I5697293
sVrawcites
p3686
(lp3687
I983293
aI1314437
aI1704241
aI2944629
aI3120432
aI3189286
aI3222853
aI3550527
aI3636864
aI4115896
aI4121514
aI4133658
aI4443997
aI5013343
aI5317783
aI5428864
asaa(lp3688
I5697294
a(dp3689
V_id
p3690
I5697294
sVrawcites
p3691
(lp3692
I3157301
aI3252737
aI3557683
aI3822526
aI3834290
aI3850295
aI3908539
aI4140052
aI4162603
aI4249843
aI4547112
aI4559870
aI4608808
aI4777781
aI4858415
aI4880350
aI4920729
aI5092106
asaa(lp3693
I5697295
a(dp3694
V_id
p3695
I5697295
sVrawcites
p3696
(lp3697
I4231652
aI4769652
aI5355795
aI5413043
aI5435242
asaa(lp3698
I5697297
a(dp3699
V_id
p3700
I5697297
sVrawcites
p3701
(lp3702
I1949362
aI4384522
aI4413541
aI4462311
aI4491070
aI4616564
aI4839814
aI4887529
aI4960048
aI5163368
aI5392710
aI5429044
aI5540149
asaa(lp3703
I5697299
a(dp3704
V_id
p3705
I5697299
sVrawcites
p3706
(lp3707
I4099461
aI4787313
aI5265535
asaa(lp3708
I5697300
a(dp3709
V_id
p3710
I5697300
sVrawcites
p3711
(lp3712
I3472162
aI3580719
aI3736873
aI3745586
aI3816659
aI3945318
aI3962513
aI3964389
aI4245003
aI4588674
aI4711834
aI4846065
aI5129321
aI5132723
aI5156938
aI5171650
aI5238778
aI5308737
aI5326619
aI5340693
aI5342731
aI5360781
aI5382964
aI5460918
asaa(lp3713
I5697301
a(dp3714
V_id
p3715
I5697301
sVrawcites
p3716
(lp3717
I2120052
aI3009424
aI3577930
aI3696890
aI3807314
aI5111750
aI5404992
asaa(lp3718
I5697303
a(dp3719
V_id
p3720
I5697303
sVrawcites
p3721
(lp3722
I169382
aI187361
aI201876
aI213775
aI466464
aI651539
aI851659
aI1037627
aI1122372
aI1246859
aI1392744
aI2287577
aI2524386
aI2710783
aI2822229
aI2914244
aI3172551
aI3359575
aI3418714
aI3530513
aI3823475
aI3830352
aI3902034
aI4082244
aI4316082
aI4516509
aI4550666
aI4562987
aI4616798
aI4625657
aI4632349
aI4635893
aI4644875
aI4691888
aI4706919
aI4708312
aI4779922
aI4805538
aI5037054
aI5041770
aI5044284
aI5211367
aI5257767
asaa(lp3723
I5697304
a(dp3724
V_id
p3725
I5697304
sVrawcites
p3726
(lp3727
I464494
aI2506844
aI3545712
aI3856147
aI4094255
aI4242971
aI4262605
aI4423913
aI4709640
aI5038942
aI5492399
asaa(lp3728
I5697305
a(dp3729
V_id
p3730
I5697305
sVrawcites
p3731
(lp3732
I1676440
aI2113049
aI2461715
aI2642326
aI2695656
aI2727754
aI3802708
aI4624598
aI4724773
aI4905611
aI5066078
aI5404828
aI5436048
asaa(lp3733
I5697306
a(dp3734
V_id
p3735
I5697306
sVrawcites
p3736
(lp3737
I710033
aI823836
aI1870013
aI1976208
aI2267025
aI3049085
aI3074361
aI3111271
aI3145670
aI3788796
aI3904349
aI4113838
aI4157889
aI4206712
aI4208180
aI4270895
aI4329932
aI4333405
aI4380202
aI4400151
aI4412810
aI4422389
aI4428727
aI4479442
aI4545307
aI4627366
aI4654001
aI4669398
aI4748919
aI4768948
aI4836772
aI4915619
aI4924784
aI5003891
aI5027723
aI5199355
aI5246364
asaa(lp3738
I5697307
a(dp3739
V_id
p3740
I5697307
sVrawcites
p3741
(lp3742
I4019896
aI4355601
aI5044287
aI5179903
aI5467722
asaa(lp3743
I5697308
a(dp3744
V_id
p3745
I5697308
sVrawcites
p3746
(lp3747
I107554
aI712564
aI1124695
aI1167662
aI1299160
aI2587765
aI2917012
aI3658018
aI3882594
aI4031834
aI4231306
aI4344374
aI4356780
aI4373456
aI4408667
aI4423788
aI4580507
aI4715450
aI4736803
aI4744316
aI4760806
aI4766692
aI4955297
aI5025736
aI5119888
aI5129168
aI5131725
aI5159985
aI5297637
aI5310009
aI5314029
aI5325799
aI5333559
aI5429016
aI5429199
asaa(lp3748
I5697309
a(dp3749
V_id
p3750
I5697309
sVrawcites
p3751
(lp3752
I1322842
aI2063521
aI2869493
aI2976828
aI3083654
aI3490061
aI3664280
aI4043282
aI4067269
aI4793463
aI4821656
aI4905615
aI4958579
aI5367968
aI5483909
asaa(lp3753
I5697310
a(dp3754
V_id
p3755
I5697310
sVrawcites
p3756
(lp3757
I3783810
aI4237804
aI4690080
aI4942834
asaa(lp3758
I5697311
a(dp3759
V_id
p3760
I5697311
sVrawcites
p3761
(lp3762
I4312282
aI4602578
aI4785749
aI4793272
aI4809627
aI4819572
aI5400728
asaa(lp3763
I5697312
a(dp3764
V_id
p3765
I5697312
sVrawcites
p3766
(lp3767
I2048312
aI3842775
aI3894505
aI4181235
aI4672906
asaa(lp3768
I5697313
a(dp3769
V_id
p3770
I5697313
sVrawcites
p3771
(lp3772
I2518091
aI2924191
aI3035536
aI3073274
aI3145681
aI3152568
aI3492825
aI3603276
aI3691974
aI3763808
aI4223629
aI4287625
aI4386441
aI4493284
aI4641595
aI4928617
aI5044829
aI5207534
aI5213447
asaa(lp3773
I5697315
a(dp3774
V_id
p3775
I5697315
sVrawcites
p3776
(lp3777
I1844303
aI2392165
asaa(lp3778
I5697317
a(dp3779
V_id
p3780
I5697317
sVrawcites
p3781
(lp3782
I1875344
aI2748400
aI3158129
aI3447504
aI3483844
aI3610713
aI3756189
aI3827391
aI3948206
aI4387661
aI5113777
asaa(lp3783
I5697319
a(dp3784
V_id
p3785
I5697319
sVrawcites
p3786
(lp3787
I1290448
aI1866643
aI1994236
aI3067714
aI3207466
aI3400683
aI3797442
aI3956785
aI4019454
aI4106745
aI4534307
aI4938165
aI4953494
aI5260912
aI5369868
asaa(lp3788
I5697321
a(dp3789
V_id
p3790
I5697321
sVrawcites
p3791
(lp3792
I982645
aI984884
aI1311712
aI1337237
aI1855824
aI2794414
aI3587520
aI5253608
aI5255627
aI5335621
asaa(lp3793
I3932300
a(dp3794
V_id
p3795
I3932300
sVrawcites
p3796
(lp3797
I3608636
aI3706630
asaa(lp3798
I3932304
a(dp3799
V_id
p3800
I3932304
sVrawcites
p3801
(lp3802
I2664453
aI3111495
aI3488225
aI3840407
asaa(lp3803
I3932336
a(dp3804
V_id
p3805
I3932336
sVrawcites
p3806
(lp3807
I2462422
aI3485811
aI3523111
asaa(lp3808
I5810351
a(dp3809
V_id
p3810
I5810351
sVrawcites
p3811
(lp3812
I4205606
aI4811547
aI5179900
aI5607148
asaa(lp3813
I5810576
a(dp3814
V_id
p3815
I5810576
sVrawcites
p3816
(lp3817
I5234196
aI5379683
aI5386815
asaa(lp3818
I5810579
a(dp3819
V_id
p3820
I5810579
sVrawcites
p3821
(lp3822
I4726767
aI5215456
aI5460520
asaa(lp3823
I5810581
a(dp3824
V_id
p3825
I5810581
sVrawcites
p3826
(lp3827
saa(lp3828
I5810626
a(dp3829
V_id
p3830
I5810626
sVrawcites
p3831
(lp3832
I4915654
aI5030142
aI5044991
aI5624284
asaa(lp3833
I5810660
a(dp3834
V_id
p3835
I5810660
sVrawcites
p3836
(lp3837
I5388426
aI5461875
asaa(lp3838
I5810707
a(dp3839
V_id
p3840
I5810707
sVrawcites
p3841
(lp3842
saa(lp3843
I7002503
a(dp3844
V_id
p3845
I7002503
sVrawcites
p3846
(lp3847
saa(lp3848
I7002515
a(dp3849
V_id
p3850
I7002515
sVrawcites
p3851
(lp3852
I6816113
aI6873910
asaa(lp3853
I7002538
a(dp3854
V_id
p3855
I7002538
sVrawcites
p3856
(lp3857
I5572655
aI5590078
aI5905484
aI6825824
asaa(lp3858
I7002562
a(dp3859
V_id
p3860
I7002562
sVrawcites
p3861
(lp3862
I5253091
aI5670792
aI6265986
aI6274391
asaa(lp3863
I7119826
a(dp3864
V_id
p3865
I7119826
sVrawcites
p3866
(lp3867
I5337074
asaa(lp3868
I7119860
a(dp3869
V_id
p3870
I7119860
sVrawcites
p3871
(lp3872
I6417897
aI6685328
asaa(lp3873
I7119867
a(dp3874
V_id
p3875
I7119867
sVrawcites
p3876
(lp3877
I6646701
aI6977703
asaa(lp3878
I7119868
a(dp3879
V_id
p3880
I7119868
sVrawcites
p3881
(lp3882
saa(lp3883
I7119875
a(dp3884
V_id
p3885
I7119875
sVrawcites
p3886
(lp3887
I5241330
aI5247373
aI5436728
aI6507713
aI6646715
asaa(lp3888
I7119877
a(dp3889
V_id
p3890
I7119877
sVrawcites
p3891
(lp3892
I6954258
asaa(lp3893
I7119894
a(dp3894
V_id
p3895
I7119894
sVrawcites
p3896
(lp3897
I4575373
aI5288293
aI5296305
aI6413276
asaa(lp3898
I7119910
a(dp3899
V_id
p3900
I7119910
sVrawcites
p3901
(lp3902
saa(lp3903
I7119925
a(dp3904
V_id
p3905
I7119925
sVrawcites
p3906
(lp3907
I5436734
aI6480625
aI6570565
aI6594387
asaa(lp3908
I7119929
a(dp3909
V_id
p3910
I7119929
sVrawcites
p3911
(lp3912
saa(lp3913
I7119930
a(dp3914
V_id
p3915
I7119930
sVrawcites
p3916
(lp3917
I5453849
aI5790281
aI6029115
asaa(lp3918
I7119946
a(dp3919
V_id
p3920
I7119946
sVrawcites
p3921
(lp3922
I6525865
asaa(lp3923
I7002582
a(dp3924
V_id
p3925
I7002582
sVrawcites
p3926
(lp3927
I6078306
aI6542161
asaa(lp3928
I7002615
a(dp3929
V_id
p3930
I7002615
sVrawcites
p3931
(lp3932
I5157416
asaa(lp3933
I7002661
a(dp3934
V_id
p3935
I7002661
sVrawcites
p3936
(lp3937
saa(lp3938
I7002662
a(dp3939
V_id
p3940
I7002662
sVrawcites
p3941
(lp3942
I5750641
aI6417902
aI6421107
asaa(lp3943
I7002673
a(dp3944
V_id
p3945
I7002673
sVrawcites
p3946
(lp3947
saa(lp3948
I7002674
a(dp3949
V_id
p3950
I7002674
sVrawcites
p3951
(lp3952
I6812045
asaa(lp3953
I7119952
a(dp3954
V_id
p3955
I7119952
sVrawcites
p3956
(lp3957
saa(lp3958
I7119958
a(dp3959
V_id
p3960
I7119958
sVrawcites
p3961
(lp3962
I4983017
aI5065380
asaa(lp3963
I7119961
a(dp3964
V_id
p3965
I7119961
sVrawcites
p3966
(lp3967
I6141034
asaa(lp3968
I7119977
a(dp3969
V_id
p3970
I7119977
sVrawcites
p3971
(lp3972
I6133784
aI6252459
aI6404578
asaa(lp3973
I7120044
a(dp3974
V_id
p3975
I7120044
sVrawcites
p3976
(lp3977
I6091624
aI6118688
aI6157563
asaa(lp3978
I7120056
a(dp3979
V_id
p3980
I7120056
sVrawcites
p3981
(lp3982
I5873112
aI6285627
aI6661710
asaa(lp3983
I7120082
a(dp3984
V_id
p3985
I7120082
sVrawcites
p3986
(lp3987
I4247921
aI5596286
aI6934210
asaa(lp3988
I7120086
a(dp3989
V_id
p3990
I7120086
sVrawcites
p3991
(lp3992
I4800332
asaa(lp3993
I7120088
a(dp3994
V_id
p3995
I7120088
sVrawcites
p3996
(lp3997
I6744694
asaa(lp3998
I7120096
a(dp3999
V_id
p4000
I7120096
sVrawcites
p4001
(lp4002
I6292452
asaa(lp4003
I5180212
a(dp4004
V_id
p4005
I5180212
sVrawcites
p4006
(lp4007
I3727987
aI4050744
aI4736989
asaa(lp4008
I5180215
a(dp4009
V_id
p4010
I5180215
sVrawcites
p4011
(lp4012
I4861118
aI4900102
asaa(lp4013
I5180230
a(dp4014
V_id
p4015
I5180230
sVrawcites
p4016
(lp4017
I2967741
aI3563617
aI4262974
aI4974291
asaa(lp4018
I5180233
a(dp4019
V_id
p4020
I5180233
sVrawcites
p4021
(lp4022
saa(lp4023
I5180238
a(dp4024
V_id
p4025
I5180238
sVrawcites
p4026
(lp4027
I3905533
aI4834563
aI4852480
aI5016182
asaa(lp4028
I5180337
a(dp4029
V_id
p4030
I5180337
sVrawcites
p4031
(lp4032
I1407165
aI1437467
aI2175319
aI4928954
asaa(lp4033
I5180343
a(dp4034
V_id
p4035
I5180343
sVrawcites
p4036
(lp4037
I5003840
aI5134901
asaa(lp4038
I5180444
a(dp4039
V_id
p4040
I5180444
sVrawcites
p4041
(lp4042
I4093195
aI4582301
asaa(lp4043
I5180451
a(dp4044
V_id
p4045
I5180451
sVrawcites
p4046
(lp4047
I3746581
aI4795507
aI5006163
aI5067986
asaa(lp4048
I5180454
a(dp4049
V_id
p4050
I5180454
sVrawcites
p4051
(lp4052
I775722
aI1468643
aI2046159
asaa(lp4053
I5180477
a(dp4054
V_id
p4055
I5180477
sVrawcites
p4056
(lp4057
I4424104
asaa(lp4058
I5180532
a(dp4059
V_id
p4060
I5180532
sVrawcites
p4061
(lp4062
saa(lp4063
I5180537
a(dp4064
V_id
p4065
I5180537
sVrawcites
p4066
(lp4067
I3459346
aI4510191
aI4887748
asaa(lp4068
I5180538
a(dp4069
V_id
p4070
I5180538
sVrawcites
p4071
(lp4072
I4678167
aI4742994
asaa(lp4073
I5180541
a(dp4074
V_id
p4075
I5180541
sVrawcites
p4076
(lp4077
I3095102
aI3145636
aI3179569
aI3654869
aI4623509
asaa(lp4078
I5180556
a(dp4079
V_id
p4080
I5180556
sVrawcites
p4081
(lp4082
I3834122
asaa(lp4083
I5180560
a(dp4084
V_id
p4085
I5180560
sVrawcites
p4086
(lp4087
I3759322
asaa(lp4088
I5180565
a(dp4089
V_id
p4090
I5180565
sVrawcites
p4091
(lp4092
I4731231
aI4851201
aI4861567
asaa(lp4093
I5180566
a(dp4094
V_id
p4095
I5180566
sVrawcites
p4096
(lp4097
I3687618
aI3978195
aI4271134
asaa(lp4098
I5180582
a(dp4099
V_id
p4100
I5180582
sVrawcites
p4101
(lp4102
saa(lp4103
I5180596
a(dp4104
V_id
p4105
I5180596
sVrawcites
p4106
(lp4107
I4770882
aI4965078
asaa(lp4108
I5180600
a(dp4109
V_id
p4110
I5180600
sVrawcites
p4111
(lp4112
I3734744
aI4372980
asaa(lp4113
I5180610
a(dp4114
V_id
p4115
I5180610
sVrawcites
p4116
(lp4117
saa(lp4118
I5180654
a(dp4119
V_id
p4120
I5180654
sVrawcites
p4121
(lp4122
I4780396
aI4885230
asaa(lp4123
I5180663
a(dp4124
V_id
p4125
I5180663
sVrawcites
p4126
(lp4127
I4529700
asaa(lp4128
I5180672
a(dp4129
V_id
p4130
I5180672
sVrawcites
p4131
(lp4132
saa(lp4133
I5180701
a(dp4134
V_id
p4135
I5180701
sVrawcites
p4136
(lp4137
I3836561
aI4594332
asaa(lp4138
I4552737
a(dp4139
V_id
p4140
I4552737
sVrawcites
p4141
(lp4142
saa(lp4143
I4552762
a(dp4144
V_id
p4145
I4552762
sVrawcites
p4146
(lp4147
saa(lp4148
I4552770
a(dp4149
V_id
p4150
I4552770
sVrawcites
p4151
(lp4152
I3870800
asaa(lp4153
I4560209
a(dp4154
V_id
p4155
I4560209
sVrawcites
p4156
(lp4157
I3087761
aI3143379
aI3147045
aI3317251
aI3664713
asaa(lp4158
I6432277
a(dp4159
V_id
p4160
I6432277
sVrawcites
p4161
(lp4162
I4313786
aI4313798
aI4826575
asaa(lp4163
I6432301
a(dp4164
V_id
p4165
I6432301
sVrawcites
p4166
(lp4167
I5720874
asaa(lp4168
I6432314
a(dp4169
V_id
p4170
I6432314
sVrawcites
p4171
(lp4172
I3839237
aI4517241
aI4797187
asaa(lp4173
I6432316
a(dp4174
V_id
p4175
I6432316
sVrawcites
p4176
(lp4177
saa(lp4178
I6432319
a(dp4179
V_id
p4180
I6432319
sVrawcites
p4181
(lp4182
saa(lp4183
I4560254
a(dp4184
V_id
p4185
I4560254
sVrawcites
p4186
(lp4187
I4135786
asaa(lp4188
I4560282
a(dp4189
V_id
p4190
I4560282
sVrawcites
p4191
(lp4192
I3182966
aI3820697
aI3946996
aI4075713
asaa(lp4193
I6432394
a(dp4194
V_id
p4195
I6432394
sVrawcites
p4196
(lp4197
I4152416
aI4542014
aI5085857
aI5968286
asaa(lp4198
I6450841
a(dp4199
V_id
p4200
I6450841
sVrawcites
p4201
(lp4202
I4946398
aI5004436
aI5292261
asaa(lp4203
I6450858
a(dp4204
V_id
p4205
I6450858
sVrawcites
p4206
(lp4207
I391162
aI522772
aI1410444
aI2128000
asaa(lp4208
I4560287
a(dp4209
V_id
p4210
I4560287
sVrawcites
p4211
(lp4212
I2052479
aI3490287
aI3592059
aI3809229
asaa(lp4213
I4560331
a(dp4214
V_id
p4215
I4560331
sVrawcites
p4216
(lp4217
I1901749
aI2965198
asaa(lp4218
I4560370
a(dp4219
V_id
p4220
I4560370
sVrawcites
p4221
(lp4222
I4371361
aI4457742
aI4512753
asaa(lp4223
I4560387
a(dp4224
V_id
p4225
I4560387
sVrawcites
p4226
(lp4227
I3844806
aI4449985
aI4523924
asaa(lp4228
I4560389
a(dp4229
V_id
p4230
I4560389
sVrawcites
p4231
(lp4232
I28753
aI199394
aI3186333
asaa(lp4233
I4560404
a(dp4234
V_id
p4235
I4560404
sVrawcites
p4236
(lp4237
I3290186
aI3407049
aI3541680
aI4050147
asaa(lp4238
I4560405
a(dp4239
V_id
p4240
I4560405
sVrawcites
p4241
(lp4242
I4308415
aI4341554
aI4362556
asaa(lp4243
I6432398
a(dp4244
V_id
p4245
I6432398
sVrawcites
p4246
(lp4247
I5028422
aI5236707
aI5372808
asaa(lp4248
I6432408
a(dp4249
V_id
p4250
I6432408
sVrawcites
p4251
(lp4252
saa(lp4253
I6432410
a(dp4254
V_id
p4255
I6432410
sVrawcites
p4256
(lp4257
I5674844
aI5935852
asaa(lp4258
I6432456
a(dp4259
V_id
p4260
I6432456
sVrawcites
p4261
(lp4262
saa(lp4263
I6432467
a(dp4264
V_id
p4265
I6432467
sVrawcites
p4266
(lp4267
saa(lp4268
I6432473
a(dp4269
V_id
p4270
I6432473
sVrawcites
p4271
(lp4272
I3859403
aI4808463
aI5258338
asaa(lp4273
I6432476
a(dp4274
V_id
p4275
I6432476
sVrawcites
p4276
(lp4277
I4170631
aI4496585
asaa(lp4278
I6432477
a(dp4279
V_id
p4280
I6432477
sVrawcites
p4281
(lp4282
I5348774
aI5389152
aI6001419
asaa(lp4283
I6432480
a(dp4284
V_id
p4285
I6432480
sVrawcites
p4286
(lp4287
I4166148
aI4364995
aI5282985
aI5549764
asaa(lp4288
I6432489
a(dp4289
V_id
p4290
I6432489
sVrawcites
p4291
(lp4292
I4581407
aI5461691
asaa(lp4293
I6432491
a(dp4294
V_id
p4295
I6432491
sVrawcites
p4296
(lp4297
I5854337
asaa(lp4298
I6432514
a(dp4299
V_id
p4300
I6432514
sVrawcites
p4301
(lp4302
I5501902
asaa(lp4303
I6432519
a(dp4304
V_id
p4305
I6432519
sVrawcites
p4306
(lp4307
saa(lp4308
I6450918
a(dp4309
V_id
p4310
I6450918
sVrawcites
p4311
(lp4312
I5441462
aI5842376
aI6035734
aI6102829
asaa(lp4313
I6450944
a(dp4314
V_id
p4315
I6450944
sVrawcites
p4316
(lp4317
I2228115
aI3523301
asaa(lp4318
I3932384
a(dp4319
V_id
p4320
I3932384
sVrawcites
p4321
(lp4322
I3498988
asaa(lp4323
I3932394
a(dp4324
V_id
p4325
I3932394
sVrawcites
p4326
(lp4327
I3701774
aI3745158
asaa(lp4328
I3932399
a(dp4329
V_id
p4330
I3932399
sVrawcites
p4331
(lp4332
I3481921
aI3856787
asaa(lp4333
I3932404
a(dp4334
V_id
p4335
I3932404
sVrawcites
p4336
(lp4337
saa(lp4338
I3932405
a(dp4339
V_id
p4340
I3932405
sVrawcites
p4341
(lp4342
I3790571
asaa(lp4343
I3932408
a(dp4344
V_id
p4345
I3932408
sVrawcites
p4346
(lp4347
I3703517
asaa(lp4348
I3932413
a(dp4349
V_id
p4350
I3932413
sVrawcites
p4351
(lp4352
I3649633
aI3697525
asaa(lp4353
I3932414
a(dp4354
V_id
p4355
I3932414
sVrawcites
p4356
(lp4357
I2503899
asaa(lp4358
I3932419
a(dp4359
V_id
p4360
I3932419
sVrawcites
p4361
(lp4362
I3687929
asaa(lp4363
I3932420
a(dp4364
V_id
p4365
I3932420
sVrawcites
p4366
(lp4367
saa(lp4368
I3932423
a(dp4369
V_id
p4370
I3932423
sVrawcites
p4371
(lp4372
I3632816
asaa(lp4373
I3932432
a(dp4374
V_id
p4375
I3932432
sVrawcites
p4376
(lp4377
I3878219
asaa(lp4378
I3932433
a(dp4379
V_id
p4380
I3932433
sVrawcites
p4381
(lp4382
I3159645
aI3687963
asaa(lp4383
I3932439
a(dp4384
V_id
p4385
I3932439
sVrawcites
p4386
(lp4387
I2773878
asaa(lp4388
I3932440
a(dp4389
V_id
p4390
I3932440
sVrawcites
p4391
(lp4392
I3830928
asaa(lp4393
I3932441
a(dp4394
V_id
p4395
I3932441
sVrawcites
p4396
(lp4397
saa(lp4398
I3932447
a(dp4399
V_id
p4400
I3932447
sVrawcites
p4401
(lp4402
I3541213
aI3626070
asaa(lp4403
I3932453
a(dp4404
V_id
p4405
I3932453
sVrawcites
p4406
(lp4407
I3121092
asaa(lp4408
I3932456
a(dp4409
V_id
p4410
I3932456
sVrawcites
p4411
(lp4412
I3190853
asaa(lp4413
I3932459
a(dp4414
V_id
p4415
I3932459
sVrawcites
p4416
(lp4417
saa(lp4418
I3932460
a(dp4419
V_id
p4420
I3932460
sVrawcites
p4421
(lp4422
I2691026
asaa(lp4423
I3932471
a(dp4424
V_id
p4425
I3932471
sVrawcites
p4426
(lp4427
I3839395
aI3875232
asaa(lp4428
I3932472
a(dp4429
V_id
p4430
I3932472
sVrawcites
p4431
(lp4432
saa(lp4433
I3932473
a(dp4434
V_id
p4435
I3932473
sVrawcites
p4436
(lp4437
I3417146
asaa(lp4438
I3932481
a(dp4439
V_id
p4440
I3932481
sVrawcites
p4441
(lp4442
I3237200
aI3528986
asaa(lp4443
I3932486
a(dp4444
V_id
p4445
I3932486
sVrawcites
p4446
(lp4447
saa(lp4448
I3932489
a(dp4449
V_id
p4450
I3932489
sVrawcites
p4451
(lp4452
saa(lp4453
I3932491
a(dp4454
V_id
p4455
I3932491
sVrawcites
p4456
(lp4457
I2934561
aI3527776
aI3742041
asaa(lp4458
I3932493
a(dp4459
V_id
p4460
I3932493
sVrawcites
p4461
(lp4462
saa(lp4463
I3932505
a(dp4464
V_id
p4465
I3932505
sVrawcites
p4466
(lp4467
I2716663
aI2763684
asaa(lp4468
I3932530
a(dp4469
V_id
p4470
I3932530
sVrawcites
p4471
(lp4472
saa(lp4473
I3932540
a(dp4474
V_id
p4475
I3932540
sVrawcites
p4476
(lp4477
I3268597
aI3283013
aI3378593
asaa(lp4478
I3932549
a(dp4479
V_id
p4480
I3932549
sVrawcites
p4481
(lp4482
saa(lp4483
I5697314
a(dp4484
V_id
p4485
I5697314
sVrawcites
p4486
(lp4487
I3132620
aI4724787
asaa(lp4488
I5697316
a(dp4489
V_id
p4490
I5697316
sVrawcites
p4491
(lp4492
I1361902
aI3000021
aI3145686
aI5299521
aI5355822
asaa(lp4493
I5697320
a(dp4494
V_id
p4495
I5697320
sVrawcites
p4496
(lp4497
I2833296
aI5303667
aI5361717
asaa(lp4498
I5697322
a(dp4499
V_id
p4500
I5697322
sVrawcites
p4501
(lp4502
I2792803
aI3071105
aI3094970
aI3219008
aI4163428
aI4995022
aI5523922
aI5623456
asaa(lp4503
I5697324
a(dp4504
V_id
p4505
I5697324
sVrawcites
p4506
(lp4507
I4034713
aI4763605
aI5042428
aI5069160
aI5431128
aI5479876
asaa(lp4508
I5697326
a(dp4509
V_id
p4510
I5697326
sVrawcites
p4511
(lp4512
I3022766
aI5042501
aI5047214
asaa(lp4513
I5697329
a(dp4514
V_id
p4515
I5697329
sVrawcites
p4516
(lp4517
I3857139
aI4223918
aI4913136
aI5203829
aI5263495
aI5503620
asaa(lp4518
I5697330
a(dp4519
V_id
p4520
I5697330
sVrawcites
p4521
(lp4522
I4599066
aI4672919
aI4867106
aI4872443
aI4899696
aI5012793
aI5020512
aI5255665
aI5355841
asaa(lp4523
I5697333
a(dp4524
V_id
p4525
I5697333
sVrawcites
p4526
(lp4527
I5524580
aI5529033
aI5584267
aI5619958
aI5623897
asaa(lp4528
I5697339
a(dp4529
V_id
p4530
I5697339
sVrawcites
p4531
(lp4532
I4028532
aI4116052
aI4277830
aI4760830
aI4805571
aI4844035
aI4912968
aI4915072
aI5483486
asaa(lp4533
I5697341
a(dp4534
V_id
p4535
I5697341
sVrawcites
p4536
(lp4537
I4485789
aI4699320
aI4826081
aI4934599
aI5020498
aI5094397
aI5121730
aI5191867
aI5323964
aI5377636
aI5460133
aI5499608
aI5558067
asaa(lp4538
I5697350
a(dp4539
V_id
p4540
I5697350
sVrawcites
p4541
(lp4542
I4969422
aI5115791
aI5123385
aI5341772
aI5529045
aI5582145
asaa(lp4543
I5697363
a(dp4544
V_id
p4545
I5697363
sVrawcites
p4546
(lp4547
I1391060
aI2208633
aI2625155
aI2814293
aI3347229
aI3850168
aI4310307
aI5005571
asaa(lp4548
I5697365
a(dp4549
V_id
p4550
I5697365
sVrawcites
p4551
(lp4552
I3538918
aI3884242
aI4056104
aI4146034
aI4419095
aI4477255
aI4584998
aI4593690
aI4601713
aI4637388
aI4683879
aI4710181
aI4769006
aI4850348
aI4917667
aI4977894
aI5067497
aI5447152
aI5487730
aI5562127
asaa(lp4553
I5697371
a(dp4554
V_id
p4555
I5697371
sVrawcites
p4556
(lp4557
I5024231
aI5284137
asaa(lp4558
I5697373
a(dp4559
V_id
p4560
I5697373
sVrawcites
p4561
(lp4562
I4479499
aI4556057
aI4786813
aI4798463
aI4832483
aI4930516
aI5003977
aI5026368
aI5042494
aI5046501
aI5115137
aI5125404
aI5131398
aI5168162
aI5174297
aI5201318
aI5251613
aI5261410
aI5293872
aI5303026
aI5318024
aI5337745
aI5348003
aI5348018
aI5369496
aI5377676
aI5386827
aI5408996
aI5413108
aI5421339
aI5450857
aI5452723
aI5498875
aI5590660
aI5596992
asaa(lp4563
I5697377
a(dp4564
V_id
p4565
I5697377
sVrawcites
p4566
(lp4567
I4304239
aI4317078
aI4522212
aI4649924
aI4660571
aI4699147
aI5158092
aI5297549
aI5311866
aI5377678
aI5397339
asaa(lp4568
I5697380
a(dp4569
V_id
p4570
I5697380
sVrawcites
p4571
(lp4572
I5055101
aI5213111
aI5542434
asaa(lp4573
I5697382
a(dp4574
V_id
p4575
I5697382
sVrawcites
p4576
(lp4577
I3548418
aI3574865
aI3587115
aI4084268
aI4182446
aI4247292
aI4297749
aI4364127
aI4443895
aI4470157
aI4501030
aI4679556
aI4692164
aI4725274
aI4881562
aI5037434
aI5041130
aI5163955
aI5236450
aI5326370
aI5326371
aI5425741
aI5489298
asaa(lp4578
I5697383
a(dp4579
V_id
p4580
I5697383
sVrawcites
p4581
(lp4582
saa(lp4583
I5697384
a(dp4584
V_id
p4585
I5697384
sVrawcites
p4586
(lp4587
I4262632
asaa(lp4588
I5697386
a(dp4589
V_id
p4590
I5697386
sVrawcites
p4591
(lp4592
I2849007
aI5035005
aI5131094
aI5390369
aI5449008
asaa(lp4593
I5697390
a(dp4594
V_id
p4595
I5697390
sVrawcites
p4596
(lp4597
I3793287
aI4385093
aI4440879
aI4859332
aI4963609
aI5033488
aI5209251
aI5220932
aI5288552
aI5503842
aI5518012
asaa(lp4598
I5697405
a(dp4599
V_id
p4600
I5697405
sVrawcites
p4601
(lp4602
I4619296
aI4643233
aI5282779
aI5526850
asaa(lp4603
I5697411
a(dp4604
V_id
p4605
I5697411
sVrawcites
p4606
(lp4607
I4753279
aI4830076
aI5064156
aI5247976
asaa(lp4608
I5697168
a(dp4609
V_id
p4610
I5697168
sVrawcites
p4611
(lp4612
I4504222
aI4606283
aI5010831
aI5321898
asaa(lp4613
I5697171
a(dp4614
V_id
p4615
I5697171
sVrawcites
p4616
(lp4617
I795502
aI1453394
aI2266476
aI4835883
aI4974342
aI4993173
aI5010661
aI5138775
aI5341581
aI5353525
asaa(lp4618
I5697172
a(dp4619
V_id
p4620
I5697172
sVrawcites
p4621
(lp4622
I2775830
aI2999697
aI3008251
aI3456369
aI3587751
aI3712383
aI4208974
aI4255878
aI4259794
aI4293043
aI4307523
aI4794710
aI5079866
aI5191729
aI5323862
asaa(lp4623
I5697318
a(dp4624
V_id
p4625
I5697318
sVrawcites
p4626
(lp4627
I3428976
aI3839757
aI4566734
aI4712503
aI4754724
aI4945853
aI5131346
aI5399111
asaa(lp4628
I5697323
a(dp4629
V_id
p4630
I5697323
sVrawcites
p4631
(lp4632
I3172391
aI3234906
aI3754632
aI4292926
aI4391221
aI5090359
aI5218924
aI5443035
asaa(lp4633
I5697325
a(dp4634
V_id
p4635
I5697325
sVrawcites
p4636
(lp4637
I1332318
aI2160651
aI3900005
aI5207177
aI5218924
asaa(lp4638
I5697327
a(dp4639
V_id
p4640
I5697327
sVrawcites
p4641
(lp4642
I1954703
aI2646023
aI3187958
aI3199493
aI3230933
aI3270857
aI3292585
aI3357540
aI3394681
aI3415228
aI3561403
aI3598087
aI3773220
aI3776191
aI3971340
aI4003339
aI4089300
aI4220434
aI4611921
aI4640230
aI4850307
aI5335619
aI5513597
asaa(lp4643
I5697328
a(dp4644
V_id
p4645
I5697328
sVrawcites
p4646
(lp4647
I950143
aI3036554
aI3529601
aI4091766
aI4598666
aI5168577
aI5307764
asaa(lp4648
I5697331
a(dp4649
V_id
p4650
I5697331
sVrawcites
p4651
(lp4652
I2715392
aI2717148
aI4080936
aI4725226
aI5010869
aI5061462
aI5199386
asaa(lp4653
I5697332
a(dp4654
V_id
p4655
I5697332
sVrawcites
p4656
(lp4657
I4969329
aI4993373
aI5063887
aI5190006
aI5373816
asaa(lp4658
I5697334
a(dp4659
V_id
p4660
I5697334
sVrawcites
p4661
(lp4662
I2944178
aI4730582
aI4901688
aI4989557
aI5014656
aI5091672
aI5258684
asaa(lp4663
I5697335
a(dp4664
V_id
p4665
I5697335
sVrawcites
p4666
(lp4667
I1365564
aI4191140
aI4465035
aI4794885
aI4811697
aI5488939
asaa(lp4668
I5697336
a(dp4669
V_id
p4670
I5697336
sVrawcites
p4671
(lp4672
I5257605
asaa(lp4673
I5697337
a(dp4674
V_id
p4675
I5697337
sVrawcites
p4676
(lp4677
I4884540
aI5065717
aI5133319
aI5136997
aI5463993
aI5517964
aI5564387
asaa(lp4678
I5697338
a(dp4679
V_id
p4680
I5697338
sVrawcites
p4681
(lp4682
I3844263
aI4337650
aI4359032
aI4438496
aI4462368
aI4475507
aI4492196
aI4494507
aI4502438
aI4503820
aI4597369
aI4736726
aI4766864
aI4788960
aI4817575
aI4825369
aI5241933
asaa(lp4683
I5697340
a(dp4684
V_id
p4685
I5697340
sVrawcites
p4686
(lp4687
I4351297
aI4790280
aI5535586
aI5540202
asaa(lp4688
I5697342
a(dp4689
V_id
p4690
I5697342
sVrawcites
p4691
(lp4692
I3175771
aI3241768
aI3361161
aI3443760
aI3450353
aI3532121
aI3570806
aI3570807
aI3570833
aI3592568
aI3604959
aI3661130
aI3683239
aI3742918
aI3743898
aI3821967
aI3989066
aI4040569
aI4064855
aI4096995
aI4107546
aI4108419
aI4114647
aI4120456
aI4129255
aI4192466
aI4258674
aI4269360
aI4343280
aI4392612
aI4409638
aI4417557
aI4482094
aI4498625
aI4501290
aI4516600
aI4541454
aI4544096
aI4561701
aI4568021
aI4580598
aI4586656
aI4618095
aI4628881
aI4635854
aI4671232
aI4681080
aI4709679
aI4714066
aI4721253
aI4777921
aI4782807
aI4811221
aI4813601
aI4831989
aI4838232
aI4840160
aI4870940
aI4934599
aI4946103
aI4951874
aI4964571
aI4969600
aI4993637
aI5007584
aI5033442
aI5046472
aI5072882
aI5082180
aI5109822
aI5121730
aI5133645
aI5141164
aI5143291
aI5155461
aI5201295
aI5221046
aI5230613
aI5235954
aI5265804
aI5271563
aI5335852
aI5347970
aI5353991
aI5370095
aI5441028
aI5477828
aI5485820
aI5485957
aI5585547
asaa(lp4693
I5697343
a(dp4694
V_id
p4695
I5697343
sVrawcites
p4696
(lp4697
I4777921
aI5058553
aI5094216
aI5186138
aI5197438
aI5313924
aI5404855
aI5441027
asaa(lp4698
I5697344
a(dp4699
V_id
p4700
I5697344
sVrawcites
p4701
(lp4702
I3194221
aI3402703
aI3527263
aI3924583
aI4384557
aI4445713
aI5335635
asaa(lp4703
I5697345
a(dp4704
V_id
p4705
I5697345
sVrawcites
p4706
(lp4707
I3387867
aI4066213
aI4133321
aI4403586
aI4419977
aI4519371
aI4528959
aI4571161
aI4648556
aI4829646
aI4917069
aI4938193
aI5121731
aI5308038
asaa(lp4708
I5697346
a(dp4709
V_id
p4710
I5697346
sVrawcites
p4711
(lp4712
I3343403
aI3554004
aI3557605
aI3762197
aI3789655
aI3798528
aI3815562
aI3885720
aI3915645
aI3981176
aI4121455
aI4140090
aI4222351
aI4246773
aI4261315
aI4280183
aI4280823
aI4283256
aI4305352
aI4344397
aI4361026
aI4389881
aI4421071
aI4474061
aI4555932
aI4563894
aI4599892
aI4622939
aI4630482
aI4663977
aI4722303
aI4993386
aI5002020
aI5060506
aI5060514
aI5138163
aI5145566
aI5265458
aI5343699
asaa(lp4713
I5697347
a(dp4714
V_id
p4715
I5697347
sVrawcites
p4716
(lp4717
I4753211
aI4754738
aI4977882
asaa(lp4718
I5697348
a(dp4719
V_id
p4720
I5697348
sVrawcites
p4721
(lp4722
I4308840
aI4338106
aI4815436
aI4894072
aI5111795
aI5143041
aI5165379
aI5337721
aI5347971
aI5398660
aI5456236
aI5456237
aI5460136
aI5479904
asaa(lp4723
I5697349
a(dp4724
V_id
p4725
I5697349
sVrawcites
p4726
(lp4727
I2450864
aI2652819
aI2737935
aI3145697
aI3225753
aI3246639
aI3620197
aI3659625
aI3877451
aI4114576
aI4167164
aI4373499
aI4627406
aI5090393
aI5347973
aI5542401
aI5564401
asaa(lp4728
I5697351
a(dp4729
V_id
p4730
I5697351
sVrawcites
p4731
(lp4732
I1693355
aI2481713
aI2742057
aI2744727
aI2926690
aI3056420
aI3111138
aI3359960
aI3439703
aI3545242
aI3588041
aI3661128
aI3742701
aI3766898
aI3809111
aI4171712
aI4498499
aI5069188
aI5425397
asaa(lp4733
I5697352
a(dp4734
V_id
p4735
I5697352
sVrawcites
p4736
(lp4737
I4198943
aI4248201
aI4979486
aI5146882
aI5365909
asaa(lp4738
I5697353
a(dp4739
V_id
p4740
I5697353
sVrawcites
p4741
(lp4742
I4526001
aI4831820
aI4903648
aI4936278
aI4982714
aI5072712
aI5215068
aI5337722
aI5433185
asaa(lp4743
I5697354
a(dp4744
V_id
p4745
I5697354
sVrawcites
p4746
(lp4747
I4646699
aI4877006
aI4993393
aI5220904
aI5253630
aI5375583
aI5492106
asaa(lp4748
I5697355
a(dp4749
V_id
p4750
I5697355
sVrawcites
p4751
(lp4752
I2900973
aI3814075
aI3921598
aI4078538
aI4178905
aI4333443
aI4336786
aI4440142
aI4546754
aI4644929
aI4674468
aI4733648
aI4781167
aI4909231
aI4926833
aI4957094
aI4995373
aI5025774
aI5307787
aI5331941
aI5381777
aI5464001
aI5487373
aI5499618
aI5507270
asaa(lp4753
I5697356
a(dp4754
V_id
p4755
I5697356
sVrawcites
p4756
(lp4757
I2691974
aI2777435
aI3499414
aI3504659
aI4318390
aI4577612
aI4685439
aI5415154
asaa(lp4758
I5697357
a(dp4759
V_id
p4760
I5697357
sVrawcites
p4761
(lp4762
I3410644
aI3703771
aI4552121
aI4656747
aI4833786
aI4961264
aI5137007
aI5347976
asaa(lp4763
I5697358
a(dp4764
V_id
p4765
I5697358
sVrawcites
p4766
(lp4767
I2957469
aI3923036
aI4457287
aI4725295
aI5099819
aI5113841
aI5280779
aI5335644
aI5520164
aI5551413
asaa(lp4768
I5697359
a(dp4769
V_id
p4770
I5697359
sVrawcites
p4771
(lp4772
I3023551
aI3196584
aI3742655
aI4867025
aI5040341
asaa(lp4773
I5697360
a(dp4774
V_id
p4775
I5697360
sVrawcites
p4776
(lp4777
I2511328
aI2796060
aI2944139
aI3145289
aI3423568
aI4585923
aI5275147
asaa(lp4778
I5697361
a(dp4779
V_id
p4780
I5697361
sVrawcites
p4781
(lp4782
I1922920
aI1952281
aI3319627
aI3717147
aI3875745
aI3906996
aI4237877
aI4300496
aI4448111
aI4501270
aI4552140
aI4649912
aI4850809
aI4883051
aI5237987
asaa(lp4783
I5697362
a(dp4784
V_id
p4785
I5697362
sVrawcites
p4786
(lp4787
I46902
aI156599
aI183521
aI690663
aI1210939
aI1727202
aI1845263
aI2376871
aI2859747
aI2868196
aI3265066
aI3315672
aI3802431
aI4055174
aI4245632
aI4470413
aI4878491
aI5199421
aI5485832
aI5487379
asaa(lp4788
I5697364
a(dp4789
V_id
p4790
I5697364
sVrawcites
p4791
(lp4792
I3972327
aI4206754
aI4461293
aI4462398
aI4484578
aI4519387
aI4570631
aI4584996
aI4612928
aI4648395
aI4681099
aI4686974
aI4686975
aI4706664
aI4784130
aI4932402
aI4938212
aI4971049
aI5097424
aI5129390
aI5161525
aI5322057
aI5390666
aI5452714
aI5513631
aI5522381
asaa(lp4793
I5697366
a(dp4794
V_id
p4795
I5697366
sVrawcites
p4796
(lp4797
I3615709
aI3681255
aI3710778
aI3859049
aI3892058
aI3895093
aI4109505
aI4116336
aI4119406
aI4171288
aI4266941
aI4470520
aI4478222
aI4535786
aI4739645
aI4759371
aI4786394
aI4830013
aI4871439
aI4960708
aI5046496
aI5057278
aI5096669
aI5165406
aI5325853
aI5330634
aI5365925
asaa(lp4798
I5697367
a(dp4799
V_id
p4800
I5697367
sVrawcites
p4801
(lp4802
I2790438
aI3230951
aI3602213
aI3769974
aI3810460
aI3814081
aI3822695
aI3910701
aI4013067
aI4015595
aI4063551
aI4091803
aI4109643
aI4163447
aI4223680
aI4249540
aI4259963
aI4267844
aI4281645
aI4321930
aI4332258
aI4336809
aI4344438
aI4350163
aI4380240
aI4510938
aI4515165
aI4570638
aI4685464
aI4763660
aI4770179
aI4805623
aI4819752
aI4825872
aI4825879
aI4830014
aI4840179
aI4865038
aI4867557
aI4880304
aI4928691
aI4938218
aI4964408
aI5057695
aI5080098
aI5094240
aI5099842
aI5111817
aI5139025
aI5140989
aI5188108
aI5209230
aI5217013
aI5226417
aI5299572
asaa(lp4803
I5697368
a(dp4804
V_id
p4805
I5697368
sVrawcites
p4806
(lp4807
I4722056
aI4835690
aI4989253
aI5215095
aI5261404
aI5273039
aI5415167
aI5417210
aI5531520
asaa(lp4808
I5697369
a(dp4809
V_id
p4810
I5697369
sVrawcites
p4811
(lp4812
I4094307
aI4112491
aI4328809
aI4407300
aI4557271
aI4557273
aI4866645
aI4955383
aI5099844
aI5130563
aI5181256
aI5204938
aI5208900
aI5311876
aI5320101
aI5325862
aI5427098
aI5447166
asaa(lp4813
I5697370
a(dp4814
V_id
p4815
I5697370
sVrawcites
p4816
(lp4817
I4739766
asaa(lp4818
I5697372
a(dp4819
V_id
p4820
I5697372
sVrawcites
p4821
(lp4822
I4608868
aI4788981
aI5361767
asaa(lp4823
I5697374
a(dp4824
V_id
p4825
I5697374
sVrawcites
p4826
(lp4827
I4260951
aI4409983
aI5381797
aI5431170
asaa(lp4828
I5697375
a(dp4829
V_id
p4830
I5697375
sVrawcites
p4831
(lp4832
I4134402
aI4214593
aI4379460
aI4409986
aI4502490
aI4517984
aI4706688
aI4729384
aI4850969
aI5048532
aI5181517
aI5191892
aI5263485
aI5269775
aI5398692
aI5433216
asaa(lp4833
I5697376
a(dp4834
V_id
p4835
I5697376
sVrawcites
p4836
(lp4837
I4121574
aI4767917
aI4854329
aI5193541
aI5218971
aI5437278
asaa(lp4838
I5697378
a(dp4839
V_id
p4840
I5697378
sVrawcites
p4841
(lp4842
I5381803
aI5421342
aI5479933
aI5490515
aI5564428
aI5598848
asaa(lp4843
I5697379
a(dp4844
V_id
p4845
I5697379
sVrawcites
p4846
(lp4847
I5230344
aI5282475
asaa(lp4848
I5697381
a(dp4849
V_id
p4850
I5697381
sVrawcites
p4851
(lp4852
I4236528
aI4387723
aI5263490
aI5360016
asaa(lp4853
I5697385
a(dp4854
V_id
p4855
I5697385
sVrawcites
p4856
(lp4857
I2734510
aI2909660
aI2937280
aI3038401
aI3073153
aI3207901
aI3619360
aI3634187
aI3687802
aI4006358
aI4069086
aI4421126
aI4648712
aI4840706
aI4941482
aI4942363
aI4957770
aI5071514
aI5393378
aI5499636
asaa(lp4858
I5697387
a(dp4859
V_id
p4860
I5697387
sVrawcites
p4861
(lp4862
I1652462
aI3211160
aI3303514
aI4665595
aI4793155
aI4912944
aI4982581
aI5195336
aI5265278
aI5283966
aI5379782
aI5398705
aI5410764
aI5441061
aI5456274
asaa(lp4863
I5697388
a(dp4864
V_id
p4865
I5697388
sVrawcites
p4866
(lp4867
I1194844
aI2166460
aI3362052
aI5494060
aI5522407
asaa(lp4868
I5697389
a(dp4869
V_id
p4870
I5697389
sVrawcites
p4871
(lp4872
I1860079
aI1922326
aI1931004
aI3199743
aI5515875
asaa(lp4873
I5697391
a(dp4874
V_id
p4875
I5697391
sVrawcites
p4876
(lp4877
I1615844
aI3095000
aI3461008
aI4302273
aI4305413
aI4753258
aI4967777
aI5000795
aI5014727
aI5127424
aI5218980
aI5226969
asaa(lp4878
I5697392
a(dp4879
V_id
p4880
I5697392
sVrawcites
p4881
(lp4882
I2943633
aI3067759
aI3126025
aI3144034
aI3146953
aI3213866
aI3288156
aI3292645
aI3368573
aI3570506
aI3648931
aI3774626
aI3969137
aI4174723
aI5427129
asaa(lp4883
I5697393
a(dp4884
V_id
p4885
I5697393
sVrawcites
p4886
(lp4887
I2687141
aI3136570
aI3188120
aI3971401
aI4473244
aI4475570
aI4662389
aI4932686
aI5024469
asaa(lp4888
I5697394
a(dp4889
V_id
p4890
I5697394
sVrawcites
p4891
(lp4892
I3537240
aI4291530
aI4397431
aI4406433
aI4655413
aI4836473
aI4919364
aI5116251
asaa(lp4893
I5697396
a(dp4894
V_id
p4895
I5697396
sVrawcites
p4896
(lp4897
I3568209
aI3720208
aI4229832
aI4674429
asaa(lp4898
I5697397
a(dp4899
V_id
p4900
I5697397
sVrawcites
p4901
(lp4902
I944927
aI2382720
aI2591216
aI2753030
aI2827259
aI2855940
aI2992807
aI3461894
aI3466005
aI3504684
aI3556467
aI5193780
asaa(lp4903
I5697398
a(dp4904
V_id
p4905
I5697398
sVrawcites
p4906
(lp4907
I2099244
aI2619983
aI2669071
aI2729236
aI3599658
aI3623506
aI3982559
aI4069839
aI4195656
aI4491149
aI4503883
aI4619436
aI4720079
aI4754778
aI4972868
aI5009245
aI5402820
asaa(lp4908
I5697400
a(dp4909
V_id
p4910
I5697400
sVrawcites
p4911
(lp4912
I3998131
aI4445422
aI4601358
aI4759420
aI4796715
aI4844118
aI5016723
aI5058696
aI5190119
aI5230273
aI5233906
asaa(lp4913
I5697401
a(dp4914
V_id
p4915
I5697401
sVrawcites
p4916
(lp4917
I2920650
aI3370613
aI3472281
aI3581772
aI3712339
aI3814131
aI3857541
aI4840111
aI5186213
asaa(lp4918
I5697402
a(dp4919
V_id
p4920
I5697402
sVrawcites
p4921
(lp4922
I3049297
aI3200440
aI3209402
aI3331380
aI3417770
aI3496261
aI3515159
aI3661163
aI4017249
aI4019844
aI5244614
asaa(lp4923
I5697403
a(dp4924
V_id
p4925
I5697403
sVrawcites
p4926
(lp4927
I2393170
aI2667185
aI3145642
aI4224826
aI4238455
aI4487510
aI4506991
aI4726563
aI4887522
aI5226213
aI5364303
asaa(lp4928
I5697404
a(dp4929
V_id
p4930
I5697404
sVrawcites
p4931
(lp4932
I4624287
aI4889438
aI4901768
aI5058629
asaa(lp4933
I5697406
a(dp4934
V_id
p4935
I5697406
sVrawcites
p4936
(lp4937
I2322228
aI4530384
aI4787428
aI5228486
asaa(lp4938
I5697407
a(dp4939
V_id
p4940
I5697407
sVrawcites
p4941
(lp4942
I2830396
aI3796239
aI4513796
aI4576603
aI4608043
aI4712590
aI4789014
aI4925444
aI5257985
aI5431496
asaa(lp4943
I5697408
a(dp4944
V_id
p4945
I5697408
sVrawcites
p4946
(lp4947
I1021757
aI3241581
aI3738464
aI3858733
aI4194615
aI5016686
aI5190132
aI5372229
asaa(lp4948
I5697409
a(dp4949
V_id
p4950
I5697409
sVrawcites
p4951
(lp4952
I3475127
aI3567398
aI3712794
aI3788369
aI3834839
aI3851530
aI4037760
aI4244919
aI4265855
aI4270670
aI4274194
aI4275765
aI4458735
aI4532969
aI4567997
aI4651497
aI4656007
aI4684045
aI4747834
aI4790451
aI4863695
aI4877585
aI5008082
aI5063790
aI5063977
aI5100021
aI5260030
aI5270219
aI5298425
aI5343909
aI5372782
aI5374395
aI5378630
aI5384095
aI5391499
aI5415840
asaa(lp4953
I5697410
a(dp4954
V_id
p4955
I5697410
sVrawcites
p4956
(lp4957
I3972387
aI4146070
aI4186783
aI4375864
aI4421146
aI4445539
aI4445551
aI4485845
aI4549577
aI4564132
aI4700744
aI4890642
aI4948014
aI4991635
aI5072756
aI5080132
aI5095962
aI5215122
aI5255713
aI5445186
asaa(lp4958
I5697165
a(dp4959
V_id
p4960
I5697165
sVrawcites
p4961
(lp4962
I1590499
aI2267157
aI4327591
aI4771548
aI4846194
aI5339533
aI5457891
aI5493788
asaa(lp4963
I5697166
a(dp4964
V_id
p4965
I5697166
sVrawcites
p4966
(lp4967
I1846380
aI2596266
aI2722150
aI2742705
aI2932897
aI3183744
aI3330709
aI3470574
aI3948120
aI4028970
aI4063444
aI4122569
aI4326436
asaa(lp4968
I5697167
a(dp4969
V_id
p4970
I5697167
sVrawcites
p4971
(lp4972
I3936951
aI4132007
aI5237757
aI5263266
aI5271162
asaa(lp4973
I5697169
a(dp4974
V_id
p4975
I5697169
sVrawcites
p4976
(lp4977
I4076222
aI4120455
aI4226108
aI4580353
aI4688724
aI5115972
aI5201132
aI5275849
aI5390900
asaa(lp4978
I5697170
a(dp4979
V_id
p4980
I5697170
sVrawcites
p4981
(lp4982
I426495
aI655576
aI890966
aI940856
aI1364226
aI1660698
aI2329573
aI2354407
aI2751692
aI3331146
aI3533171
aI3791051
aI3973336
aI4420893
aI4776110
aI4999932
aI5068981
aI5179792
aI5224277
aI5233767
aI5295313
aI5341581
aI5375345
aI5408760
asaa(lp4983
I5697174
a(dp4984
V_id
p4985
I5697174
sVrawcites
p4986
(lp4987
I4110922
aI4733487
aI4986014
aI5301200
asaa(lp4988
I5697176
a(dp4989
V_id
p4990
I5697176
sVrawcites
p4991
(lp4992
I1566167
aI4117613
aI4419655
aI4480310
aI4736539
aI4988025
aI5095430
aI5190340
aI5214679
asaa(lp4993
I5697177
a(dp4994
V_id
p4995
I5697177
sVrawcites
p4996
(lp4997
I566272
aI1413626
aI1458444
aI1485996
aI1830014
aI2246229
aI2438651
aI2669047
aI2981990
aI3264698
aI3270872
aI4379372
aI4760624
asaa(lp4998
I5697178
a(dp4999
V_id
p5000
I5697178
sVrawcites
p5001
(lp5002
I817004
aI1855403
aI2675638
aI2783569
aI2856718
aI5068990
asaatRp5003
.